ARM GAS  /tmp/cciW4iGq.s 			page 1


   1              		.cpu cortex-m7
   2              		.eabi_attribute 27, 1
   3              		.eabi_attribute 28, 1
   4              		.eabi_attribute 20, 1
   5              		.eabi_attribute 21, 1
   6              		.eabi_attribute 23, 3
   7              		.eabi_attribute 24, 1
   8              		.eabi_attribute 25, 1
   9              		.eabi_attribute 26, 1
  10              		.eabi_attribute 30, 1
  11              		.eabi_attribute 34, 1
  12              		.eabi_attribute 18, 4
  13              		.file	"stm32f7xx_hal_rcc_ex.c"
  14              		.text
  15              	.Ltext0:
  16              		.cfi_sections	.debug_frame
  17              		.section	.text.HAL_RCCEx_PeriphCLKConfig,"ax",%progbits
  18              		.align	1
  19              		.global	HAL_RCCEx_PeriphCLKConfig
  20              		.syntax unified
  21              		.thumb
  22              		.thumb_func
  23              		.fpu fpv5-sp-d16
  25              	HAL_RCCEx_PeriphCLKConfig:
  26              	.LFB141:
  27              		.file 1 "Drivers/STM32F7xx_HAL_Driver/Src/stm32f7xx_hal_rcc_ex.c"
   1:Drivers/STM32F7xx_HAL_Driver/Src/stm32f7xx_hal_rcc_ex.c **** /**
   2:Drivers/STM32F7xx_HAL_Driver/Src/stm32f7xx_hal_rcc_ex.c ****   ******************************************************************************
   3:Drivers/STM32F7xx_HAL_Driver/Src/stm32f7xx_hal_rcc_ex.c ****   * @file    stm32f7xx_hal_rcc_ex.c
   4:Drivers/STM32F7xx_HAL_Driver/Src/stm32f7xx_hal_rcc_ex.c ****   * @author  MCD Application Team
   5:Drivers/STM32F7xx_HAL_Driver/Src/stm32f7xx_hal_rcc_ex.c ****   * @brief   Extension RCC HAL module driver.
   6:Drivers/STM32F7xx_HAL_Driver/Src/stm32f7xx_hal_rcc_ex.c ****   *          This file provides firmware functions to manage the following
   7:Drivers/STM32F7xx_HAL_Driver/Src/stm32f7xx_hal_rcc_ex.c ****   *          functionalities RCC extension peripheral:
   8:Drivers/STM32F7xx_HAL_Driver/Src/stm32f7xx_hal_rcc_ex.c ****   *           + Extended Peripheral Control functions
   9:Drivers/STM32F7xx_HAL_Driver/Src/stm32f7xx_hal_rcc_ex.c ****   *
  10:Drivers/STM32F7xx_HAL_Driver/Src/stm32f7xx_hal_rcc_ex.c ****   ******************************************************************************
  11:Drivers/STM32F7xx_HAL_Driver/Src/stm32f7xx_hal_rcc_ex.c ****   * @attention
  12:Drivers/STM32F7xx_HAL_Driver/Src/stm32f7xx_hal_rcc_ex.c ****   *
  13:Drivers/STM32F7xx_HAL_Driver/Src/stm32f7xx_hal_rcc_ex.c ****   * <h2><center>&copy; Copyright (c) 2017 STMicroelectronics.
  14:Drivers/STM32F7xx_HAL_Driver/Src/stm32f7xx_hal_rcc_ex.c ****   * All rights reserved.</center></h2>
  15:Drivers/STM32F7xx_HAL_Driver/Src/stm32f7xx_hal_rcc_ex.c ****   *
  16:Drivers/STM32F7xx_HAL_Driver/Src/stm32f7xx_hal_rcc_ex.c ****   * This software component is licensed by ST under BSD 3-Clause license,
  17:Drivers/STM32F7xx_HAL_Driver/Src/stm32f7xx_hal_rcc_ex.c ****   * the "License"; You may not use this file except in compliance with the
  18:Drivers/STM32F7xx_HAL_Driver/Src/stm32f7xx_hal_rcc_ex.c ****   * License. You may obtain a copy of the License at:
  19:Drivers/STM32F7xx_HAL_Driver/Src/stm32f7xx_hal_rcc_ex.c ****   *                        opensource.org/licenses/BSD-3-Clause
  20:Drivers/STM32F7xx_HAL_Driver/Src/stm32f7xx_hal_rcc_ex.c ****   *
  21:Drivers/STM32F7xx_HAL_Driver/Src/stm32f7xx_hal_rcc_ex.c ****   ******************************************************************************
  22:Drivers/STM32F7xx_HAL_Driver/Src/stm32f7xx_hal_rcc_ex.c ****   */
  23:Drivers/STM32F7xx_HAL_Driver/Src/stm32f7xx_hal_rcc_ex.c **** 
  24:Drivers/STM32F7xx_HAL_Driver/Src/stm32f7xx_hal_rcc_ex.c **** /* Includes ------------------------------------------------------------------*/
  25:Drivers/STM32F7xx_HAL_Driver/Src/stm32f7xx_hal_rcc_ex.c **** #include "stm32f7xx_hal.h"
  26:Drivers/STM32F7xx_HAL_Driver/Src/stm32f7xx_hal_rcc_ex.c **** 
  27:Drivers/STM32F7xx_HAL_Driver/Src/stm32f7xx_hal_rcc_ex.c **** /** @addtogroup STM32F7xx_HAL_Driver
  28:Drivers/STM32F7xx_HAL_Driver/Src/stm32f7xx_hal_rcc_ex.c ****   * @{
  29:Drivers/STM32F7xx_HAL_Driver/Src/stm32f7xx_hal_rcc_ex.c ****   */
  30:Drivers/STM32F7xx_HAL_Driver/Src/stm32f7xx_hal_rcc_ex.c **** 
  31:Drivers/STM32F7xx_HAL_Driver/Src/stm32f7xx_hal_rcc_ex.c **** /** @defgroup RCCEx RCCEx
ARM GAS  /tmp/cciW4iGq.s 			page 2


  32:Drivers/STM32F7xx_HAL_Driver/Src/stm32f7xx_hal_rcc_ex.c ****   * @brief RCCEx HAL module driver
  33:Drivers/STM32F7xx_HAL_Driver/Src/stm32f7xx_hal_rcc_ex.c ****   * @{
  34:Drivers/STM32F7xx_HAL_Driver/Src/stm32f7xx_hal_rcc_ex.c ****   */
  35:Drivers/STM32F7xx_HAL_Driver/Src/stm32f7xx_hal_rcc_ex.c **** 
  36:Drivers/STM32F7xx_HAL_Driver/Src/stm32f7xx_hal_rcc_ex.c **** #ifdef HAL_RCC_MODULE_ENABLED
  37:Drivers/STM32F7xx_HAL_Driver/Src/stm32f7xx_hal_rcc_ex.c **** 
  38:Drivers/STM32F7xx_HAL_Driver/Src/stm32f7xx_hal_rcc_ex.c **** /* Private typedef -----------------------------------------------------------*/
  39:Drivers/STM32F7xx_HAL_Driver/Src/stm32f7xx_hal_rcc_ex.c **** /* Private define ------------------------------------------------------------*/
  40:Drivers/STM32F7xx_HAL_Driver/Src/stm32f7xx_hal_rcc_ex.c **** /** @defgroup RCCEx_Private_Defines RCCEx Private Defines
  41:Drivers/STM32F7xx_HAL_Driver/Src/stm32f7xx_hal_rcc_ex.c ****   * @{
  42:Drivers/STM32F7xx_HAL_Driver/Src/stm32f7xx_hal_rcc_ex.c ****   */
  43:Drivers/STM32F7xx_HAL_Driver/Src/stm32f7xx_hal_rcc_ex.c **** /**
  44:Drivers/STM32F7xx_HAL_Driver/Src/stm32f7xx_hal_rcc_ex.c ****   * @}
  45:Drivers/STM32F7xx_HAL_Driver/Src/stm32f7xx_hal_rcc_ex.c ****   */
  46:Drivers/STM32F7xx_HAL_Driver/Src/stm32f7xx_hal_rcc_ex.c **** /* Private macro -------------------------------------------------------------*/
  47:Drivers/STM32F7xx_HAL_Driver/Src/stm32f7xx_hal_rcc_ex.c **** /** @defgroup RCCEx_Private_Macros RCCEx Private Macros
  48:Drivers/STM32F7xx_HAL_Driver/Src/stm32f7xx_hal_rcc_ex.c ****  * @{
  49:Drivers/STM32F7xx_HAL_Driver/Src/stm32f7xx_hal_rcc_ex.c ****  */
  50:Drivers/STM32F7xx_HAL_Driver/Src/stm32f7xx_hal_rcc_ex.c **** /**
  51:Drivers/STM32F7xx_HAL_Driver/Src/stm32f7xx_hal_rcc_ex.c ****   * @}
  52:Drivers/STM32F7xx_HAL_Driver/Src/stm32f7xx_hal_rcc_ex.c ****   */
  53:Drivers/STM32F7xx_HAL_Driver/Src/stm32f7xx_hal_rcc_ex.c **** 
  54:Drivers/STM32F7xx_HAL_Driver/Src/stm32f7xx_hal_rcc_ex.c **** /** @defgroup RCCEx_Private_Macros RCCEx Private Macros
  55:Drivers/STM32F7xx_HAL_Driver/Src/stm32f7xx_hal_rcc_ex.c ****  * @{
  56:Drivers/STM32F7xx_HAL_Driver/Src/stm32f7xx_hal_rcc_ex.c ****  */
  57:Drivers/STM32F7xx_HAL_Driver/Src/stm32f7xx_hal_rcc_ex.c **** 
  58:Drivers/STM32F7xx_HAL_Driver/Src/stm32f7xx_hal_rcc_ex.c **** /**
  59:Drivers/STM32F7xx_HAL_Driver/Src/stm32f7xx_hal_rcc_ex.c ****   * @}
  60:Drivers/STM32F7xx_HAL_Driver/Src/stm32f7xx_hal_rcc_ex.c ****   */
  61:Drivers/STM32F7xx_HAL_Driver/Src/stm32f7xx_hal_rcc_ex.c **** 
  62:Drivers/STM32F7xx_HAL_Driver/Src/stm32f7xx_hal_rcc_ex.c **** 
  63:Drivers/STM32F7xx_HAL_Driver/Src/stm32f7xx_hal_rcc_ex.c **** /* Private variables ---------------------------------------------------------*/
  64:Drivers/STM32F7xx_HAL_Driver/Src/stm32f7xx_hal_rcc_ex.c **** /* Private function prototypes -----------------------------------------------*/
  65:Drivers/STM32F7xx_HAL_Driver/Src/stm32f7xx_hal_rcc_ex.c **** /* Private functions ---------------------------------------------------------*/
  66:Drivers/STM32F7xx_HAL_Driver/Src/stm32f7xx_hal_rcc_ex.c **** 
  67:Drivers/STM32F7xx_HAL_Driver/Src/stm32f7xx_hal_rcc_ex.c **** /** @defgroup RCCEx_Exported_Functions RCCEx Exported Functions
  68:Drivers/STM32F7xx_HAL_Driver/Src/stm32f7xx_hal_rcc_ex.c ****   * @{
  69:Drivers/STM32F7xx_HAL_Driver/Src/stm32f7xx_hal_rcc_ex.c ****   */
  70:Drivers/STM32F7xx_HAL_Driver/Src/stm32f7xx_hal_rcc_ex.c **** 
  71:Drivers/STM32F7xx_HAL_Driver/Src/stm32f7xx_hal_rcc_ex.c **** /** @defgroup RCCEx_Exported_Functions_Group1 Extended Peripheral Control functions
  72:Drivers/STM32F7xx_HAL_Driver/Src/stm32f7xx_hal_rcc_ex.c ****  *  @brief  Extended Peripheral Control functions
  73:Drivers/STM32F7xx_HAL_Driver/Src/stm32f7xx_hal_rcc_ex.c ****  *
  74:Drivers/STM32F7xx_HAL_Driver/Src/stm32f7xx_hal_rcc_ex.c **** @verbatim
  75:Drivers/STM32F7xx_HAL_Driver/Src/stm32f7xx_hal_rcc_ex.c ****  ===============================================================================
  76:Drivers/STM32F7xx_HAL_Driver/Src/stm32f7xx_hal_rcc_ex.c ****                 ##### Extended Peripheral Control functions  #####
  77:Drivers/STM32F7xx_HAL_Driver/Src/stm32f7xx_hal_rcc_ex.c ****  ===============================================================================
  78:Drivers/STM32F7xx_HAL_Driver/Src/stm32f7xx_hal_rcc_ex.c ****     [..]
  79:Drivers/STM32F7xx_HAL_Driver/Src/stm32f7xx_hal_rcc_ex.c ****     This subsection provides a set of functions allowing to control the RCC Clocks
  80:Drivers/STM32F7xx_HAL_Driver/Src/stm32f7xx_hal_rcc_ex.c ****     frequencies.
  81:Drivers/STM32F7xx_HAL_Driver/Src/stm32f7xx_hal_rcc_ex.c ****     [..]
  82:Drivers/STM32F7xx_HAL_Driver/Src/stm32f7xx_hal_rcc_ex.c ****     (@) Important note: Care must be taken when HAL_RCCEx_PeriphCLKConfig() is used to
  83:Drivers/STM32F7xx_HAL_Driver/Src/stm32f7xx_hal_rcc_ex.c ****         select the RTC clock source; in this case the Backup domain will be reset in
  84:Drivers/STM32F7xx_HAL_Driver/Src/stm32f7xx_hal_rcc_ex.c ****         order to modify the RTC Clock source, as consequence RTC registers (including
  85:Drivers/STM32F7xx_HAL_Driver/Src/stm32f7xx_hal_rcc_ex.c ****         the backup registers) and RCC_BDCR register will be set to their reset values.
  86:Drivers/STM32F7xx_HAL_Driver/Src/stm32f7xx_hal_rcc_ex.c **** 
  87:Drivers/STM32F7xx_HAL_Driver/Src/stm32f7xx_hal_rcc_ex.c **** @endverbatim
  88:Drivers/STM32F7xx_HAL_Driver/Src/stm32f7xx_hal_rcc_ex.c ****   * @{
ARM GAS  /tmp/cciW4iGq.s 			page 3


  89:Drivers/STM32F7xx_HAL_Driver/Src/stm32f7xx_hal_rcc_ex.c ****   */
  90:Drivers/STM32F7xx_HAL_Driver/Src/stm32f7xx_hal_rcc_ex.c **** #if defined (STM32F745xx) || defined (STM32F746xx) || defined (STM32F756xx) || defined (STM32F765xx
  91:Drivers/STM32F7xx_HAL_Driver/Src/stm32f7xx_hal_rcc_ex.c ****     defined (STM32F767xx) || defined (STM32F769xx) || defined (STM32F777xx) || defined (STM32F779xx
  92:Drivers/STM32F7xx_HAL_Driver/Src/stm32f7xx_hal_rcc_ex.c ****     defined (STM32F750xx)
  93:Drivers/STM32F7xx_HAL_Driver/Src/stm32f7xx_hal_rcc_ex.c **** /**
  94:Drivers/STM32F7xx_HAL_Driver/Src/stm32f7xx_hal_rcc_ex.c ****   * @brief  Initializes the RCC extended peripherals clocks according to the specified
  95:Drivers/STM32F7xx_HAL_Driver/Src/stm32f7xx_hal_rcc_ex.c ****   *         parameters in the RCC_PeriphCLKInitTypeDef.
  96:Drivers/STM32F7xx_HAL_Driver/Src/stm32f7xx_hal_rcc_ex.c ****   * @param  PeriphClkInit pointer to an RCC_PeriphCLKInitTypeDef structure that
  97:Drivers/STM32F7xx_HAL_Driver/Src/stm32f7xx_hal_rcc_ex.c ****   *         contains the configuration information for the Extended Peripherals
  98:Drivers/STM32F7xx_HAL_Driver/Src/stm32f7xx_hal_rcc_ex.c ****   *         clocks(I2S, SAI, LTDC, RTC, TIM, UARTs, USARTs, LTPIM, SDMMC...).
  99:Drivers/STM32F7xx_HAL_Driver/Src/stm32f7xx_hal_rcc_ex.c ****   *
 100:Drivers/STM32F7xx_HAL_Driver/Src/stm32f7xx_hal_rcc_ex.c ****   * @note   Care must be taken when HAL_RCCEx_PeriphCLKConfig() is used to select
 101:Drivers/STM32F7xx_HAL_Driver/Src/stm32f7xx_hal_rcc_ex.c ****   *         the RTC clock source; in this case the Backup domain will be reset in
 102:Drivers/STM32F7xx_HAL_Driver/Src/stm32f7xx_hal_rcc_ex.c ****   *         order to modify the RTC Clock source, as consequence RTC registers (including
 103:Drivers/STM32F7xx_HAL_Driver/Src/stm32f7xx_hal_rcc_ex.c ****   *         the backup registers) are set to their reset values.
 104:Drivers/STM32F7xx_HAL_Driver/Src/stm32f7xx_hal_rcc_ex.c ****   *
 105:Drivers/STM32F7xx_HAL_Driver/Src/stm32f7xx_hal_rcc_ex.c ****   * @retval HAL status
 106:Drivers/STM32F7xx_HAL_Driver/Src/stm32f7xx_hal_rcc_ex.c ****   */
 107:Drivers/STM32F7xx_HAL_Driver/Src/stm32f7xx_hal_rcc_ex.c **** HAL_StatusTypeDef HAL_RCCEx_PeriphCLKConfig(RCC_PeriphCLKInitTypeDef  *PeriphClkInit)
 108:Drivers/STM32F7xx_HAL_Driver/Src/stm32f7xx_hal_rcc_ex.c **** {
  28              		.loc 1 108 0
  29              		.cfi_startproc
  30              		@ args = 0, pretend = 0, frame = 8
  31              		@ frame_needed = 0, uses_anonymous_args = 0
  32              	.LVL0:
  33 0000 F0B5     		push	{r4, r5, r6, r7, lr}
  34              	.LCFI0:
  35              		.cfi_def_cfa_offset 20
  36              		.cfi_offset 4, -20
  37              		.cfi_offset 5, -16
  38              		.cfi_offset 6, -12
  39              		.cfi_offset 7, -8
  40              		.cfi_offset 14, -4
  41 0002 83B0     		sub	sp, sp, #12
  42              	.LCFI1:
  43              		.cfi_def_cfa_offset 32
  44 0004 0446     		mov	r4, r0
  45              	.LVL1:
 109:Drivers/STM32F7xx_HAL_Driver/Src/stm32f7xx_hal_rcc_ex.c ****   uint32_t tickstart = 0;
 110:Drivers/STM32F7xx_HAL_Driver/Src/stm32f7xx_hal_rcc_ex.c ****   uint32_t tmpreg0 = 0;
 111:Drivers/STM32F7xx_HAL_Driver/Src/stm32f7xx_hal_rcc_ex.c ****   uint32_t tmpreg1 = 0;
 112:Drivers/STM32F7xx_HAL_Driver/Src/stm32f7xx_hal_rcc_ex.c ****   uint32_t plli2sused = 0;
 113:Drivers/STM32F7xx_HAL_Driver/Src/stm32f7xx_hal_rcc_ex.c ****   uint32_t pllsaiused = 0;
 114:Drivers/STM32F7xx_HAL_Driver/Src/stm32f7xx_hal_rcc_ex.c **** 
 115:Drivers/STM32F7xx_HAL_Driver/Src/stm32f7xx_hal_rcc_ex.c ****   /* Check the parameters */
 116:Drivers/STM32F7xx_HAL_Driver/Src/stm32f7xx_hal_rcc_ex.c ****   assert_param(IS_RCC_PERIPHCLOCK(PeriphClkInit->PeriphClockSelection));
 117:Drivers/STM32F7xx_HAL_Driver/Src/stm32f7xx_hal_rcc_ex.c **** 
 118:Drivers/STM32F7xx_HAL_Driver/Src/stm32f7xx_hal_rcc_ex.c ****   /*----------------------------------- I2S configuration ----------------------------------*/
 119:Drivers/STM32F7xx_HAL_Driver/Src/stm32f7xx_hal_rcc_ex.c ****   if(((PeriphClkInit->PeriphClockSelection) & RCC_PERIPHCLK_I2S) == (RCC_PERIPHCLK_I2S))
  46              		.loc 1 119 0
  47 0006 0368     		ldr	r3, [r0]
  48 0008 13F0010F 		tst	r3, #1
  49 000c 0CD0     		beq	.L56
 120:Drivers/STM32F7xx_HAL_Driver/Src/stm32f7xx_hal_rcc_ex.c ****   {
 121:Drivers/STM32F7xx_HAL_Driver/Src/stm32f7xx_hal_rcc_ex.c ****     /* Check the parameters */
 122:Drivers/STM32F7xx_HAL_Driver/Src/stm32f7xx_hal_rcc_ex.c ****     assert_param(IS_RCC_I2SCLKSOURCE(PeriphClkInit->I2sClockSelection));
 123:Drivers/STM32F7xx_HAL_Driver/Src/stm32f7xx_hal_rcc_ex.c **** 
ARM GAS  /tmp/cciW4iGq.s 			page 4


 124:Drivers/STM32F7xx_HAL_Driver/Src/stm32f7xx_hal_rcc_ex.c ****     /* Configure I2S Clock source */
 125:Drivers/STM32F7xx_HAL_Driver/Src/stm32f7xx_hal_rcc_ex.c ****     __HAL_RCC_I2S_CONFIG(PeriphClkInit->I2sClockSelection);
  50              		.loc 1 125 0
  51 000e B64B     		ldr	r3, .L86
  52 0010 9A68     		ldr	r2, [r3, #8]
  53 0012 22F40002 		bic	r2, r2, #8388608
  54 0016 9A60     		str	r2, [r3, #8]
  55 0018 9A68     		ldr	r2, [r3, #8]
  56 001a 416B     		ldr	r1, [r0, #52]
  57 001c 0A43     		orrs	r2, r2, r1
  58 001e 9A60     		str	r2, [r3, #8]
 126:Drivers/STM32F7xx_HAL_Driver/Src/stm32f7xx_hal_rcc_ex.c **** 
 127:Drivers/STM32F7xx_HAL_Driver/Src/stm32f7xx_hal_rcc_ex.c ****     /* Enable the PLLI2S when it's used as clock source for I2S */
 128:Drivers/STM32F7xx_HAL_Driver/Src/stm32f7xx_hal_rcc_ex.c ****     if(PeriphClkInit->I2sClockSelection == RCC_I2SCLKSOURCE_PLLI2S)
  59              		.loc 1 128 0
  60 0020 436B     		ldr	r3, [r0, #52]
  61 0022 C3B1     		cbz	r3, .L57
 112:Drivers/STM32F7xx_HAL_Driver/Src/stm32f7xx_hal_rcc_ex.c ****   uint32_t pllsaiused = 0;
  62              		.loc 1 112 0
  63 0024 0026     		movs	r6, #0
  64 0026 00E0     		b	.L2
  65              	.L56:
  66 0028 0026     		movs	r6, #0
  67              	.L2:
  68              	.LVL2:
 129:Drivers/STM32F7xx_HAL_Driver/Src/stm32f7xx_hal_rcc_ex.c ****     {
 130:Drivers/STM32F7xx_HAL_Driver/Src/stm32f7xx_hal_rcc_ex.c ****       plli2sused = 1;
 131:Drivers/STM32F7xx_HAL_Driver/Src/stm32f7xx_hal_rcc_ex.c ****     }
 132:Drivers/STM32F7xx_HAL_Driver/Src/stm32f7xx_hal_rcc_ex.c ****   }
 133:Drivers/STM32F7xx_HAL_Driver/Src/stm32f7xx_hal_rcc_ex.c **** 
 134:Drivers/STM32F7xx_HAL_Driver/Src/stm32f7xx_hal_rcc_ex.c ****   /*------------------------------------ SAI1 configuration --------------------------------------*
 135:Drivers/STM32F7xx_HAL_Driver/Src/stm32f7xx_hal_rcc_ex.c ****   if(((PeriphClkInit->PeriphClockSelection) & RCC_PERIPHCLK_SAI1) == (RCC_PERIPHCLK_SAI1))
  69              		.loc 1 135 0
  70 002a 2368     		ldr	r3, [r4]
  71 002c 13F4002F 		tst	r3, #524288
  72 0030 15D0     		beq	.L58
 136:Drivers/STM32F7xx_HAL_Driver/Src/stm32f7xx_hal_rcc_ex.c ****   {
 137:Drivers/STM32F7xx_HAL_Driver/Src/stm32f7xx_hal_rcc_ex.c ****     /* Check the parameters */
 138:Drivers/STM32F7xx_HAL_Driver/Src/stm32f7xx_hal_rcc_ex.c ****     assert_param(IS_RCC_SAI1CLKSOURCE(PeriphClkInit->Sai1ClockSelection));
 139:Drivers/STM32F7xx_HAL_Driver/Src/stm32f7xx_hal_rcc_ex.c **** 
 140:Drivers/STM32F7xx_HAL_Driver/Src/stm32f7xx_hal_rcc_ex.c ****     /* Configure SAI1 Clock source */
 141:Drivers/STM32F7xx_HAL_Driver/Src/stm32f7xx_hal_rcc_ex.c ****     __HAL_RCC_SAI1_CONFIG(PeriphClkInit->Sai1ClockSelection);
  73              		.loc 1 141 0
  74 0032 AD4A     		ldr	r2, .L86
  75 0034 D2F88C30 		ldr	r3, [r2, #140]
  76 0038 23F44013 		bic	r3, r3, #3145728
  77 003c E16B     		ldr	r1, [r4, #60]
  78 003e 0B43     		orrs	r3, r3, r1
  79 0040 C2F88C30 		str	r3, [r2, #140]
 142:Drivers/STM32F7xx_HAL_Driver/Src/stm32f7xx_hal_rcc_ex.c ****     /* Enable the PLLI2S when it's used as clock source for SAI */
 143:Drivers/STM32F7xx_HAL_Driver/Src/stm32f7xx_hal_rcc_ex.c ****     if(PeriphClkInit->Sai1ClockSelection == RCC_SAI1CLKSOURCE_PLLI2S)
  80              		.loc 1 143 0
  81 0044 E36B     		ldr	r3, [r4, #60]
  82 0046 B3F5801F 		cmp	r3, #1048576
  83 004a 06D0     		beq	.L74
  84              	.LVL3:
  85              	.L4:
ARM GAS  /tmp/cciW4iGq.s 			page 5


 144:Drivers/STM32F7xx_HAL_Driver/Src/stm32f7xx_hal_rcc_ex.c ****     {
 145:Drivers/STM32F7xx_HAL_Driver/Src/stm32f7xx_hal_rcc_ex.c ****       plli2sused = 1;
 146:Drivers/STM32F7xx_HAL_Driver/Src/stm32f7xx_hal_rcc_ex.c ****     }
 147:Drivers/STM32F7xx_HAL_Driver/Src/stm32f7xx_hal_rcc_ex.c ****     /* Enable the PLLSAI when it's used as clock source for SAI */
 148:Drivers/STM32F7xx_HAL_Driver/Src/stm32f7xx_hal_rcc_ex.c ****     if(PeriphClkInit->Sai1ClockSelection == RCC_SAI1CLKSOURCE_PLLSAI)
  86              		.loc 1 148 0
  87 004c 002B     		cmp	r3, #0
  88 004e 00F02981 		beq	.L60
 113:Drivers/STM32F7xx_HAL_Driver/Src/stm32f7xx_hal_rcc_ex.c **** 
  89              		.loc 1 113 0
  90 0052 0025     		movs	r5, #0
  91 0054 04E0     		b	.L3
  92              	.LVL4:
  93              	.L57:
 130:Drivers/STM32F7xx_HAL_Driver/Src/stm32f7xx_hal_rcc_ex.c ****     }
  94              		.loc 1 130 0
  95 0056 0126     		movs	r6, #1
  96 0058 E7E7     		b	.L2
  97              	.LVL5:
  98              	.L74:
 145:Drivers/STM32F7xx_HAL_Driver/Src/stm32f7xx_hal_rcc_ex.c ****     }
  99              		.loc 1 145 0
 100 005a 0126     		movs	r6, #1
 101              	.LVL6:
 102 005c F6E7     		b	.L4
 103              	.LVL7:
 104              	.L58:
 113:Drivers/STM32F7xx_HAL_Driver/Src/stm32f7xx_hal_rcc_ex.c **** 
 105              		.loc 1 113 0
 106 005e 0025     		movs	r5, #0
 107              	.L3:
 108              	.LVL8:
 149:Drivers/STM32F7xx_HAL_Driver/Src/stm32f7xx_hal_rcc_ex.c ****     {
 150:Drivers/STM32F7xx_HAL_Driver/Src/stm32f7xx_hal_rcc_ex.c ****       pllsaiused = 1;
 151:Drivers/STM32F7xx_HAL_Driver/Src/stm32f7xx_hal_rcc_ex.c ****     }
 152:Drivers/STM32F7xx_HAL_Driver/Src/stm32f7xx_hal_rcc_ex.c ****   }
 153:Drivers/STM32F7xx_HAL_Driver/Src/stm32f7xx_hal_rcc_ex.c **** 
 154:Drivers/STM32F7xx_HAL_Driver/Src/stm32f7xx_hal_rcc_ex.c ****   /*------------------------------------ SAI2 configuration --------------------------------------*
 155:Drivers/STM32F7xx_HAL_Driver/Src/stm32f7xx_hal_rcc_ex.c ****   if(((PeriphClkInit->PeriphClockSelection) & RCC_PERIPHCLK_SAI2) == (RCC_PERIPHCLK_SAI2))
 109              		.loc 1 155 0
 110 0060 2368     		ldr	r3, [r4]
 111 0062 13F4801F 		tst	r3, #1048576
 112 0066 0FD0     		beq	.L5
 156:Drivers/STM32F7xx_HAL_Driver/Src/stm32f7xx_hal_rcc_ex.c ****   {
 157:Drivers/STM32F7xx_HAL_Driver/Src/stm32f7xx_hal_rcc_ex.c ****     /* Check the parameters */
 158:Drivers/STM32F7xx_HAL_Driver/Src/stm32f7xx_hal_rcc_ex.c ****     assert_param(IS_RCC_SAI2CLKSOURCE(PeriphClkInit->Sai2ClockSelection));
 159:Drivers/STM32F7xx_HAL_Driver/Src/stm32f7xx_hal_rcc_ex.c **** 
 160:Drivers/STM32F7xx_HAL_Driver/Src/stm32f7xx_hal_rcc_ex.c ****     /* Configure SAI2 Clock source */
 161:Drivers/STM32F7xx_HAL_Driver/Src/stm32f7xx_hal_rcc_ex.c ****     __HAL_RCC_SAI2_CONFIG(PeriphClkInit->Sai2ClockSelection);
 113              		.loc 1 161 0
 114 0068 9F4A     		ldr	r2, .L86
 115 006a D2F88C30 		ldr	r3, [r2, #140]
 116 006e 23F44003 		bic	r3, r3, #12582912
 117 0072 216C     		ldr	r1, [r4, #64]
 118 0074 0B43     		orrs	r3, r3, r1
 119 0076 C2F88C30 		str	r3, [r2, #140]
 162:Drivers/STM32F7xx_HAL_Driver/Src/stm32f7xx_hal_rcc_ex.c **** 
ARM GAS  /tmp/cciW4iGq.s 			page 6


 163:Drivers/STM32F7xx_HAL_Driver/Src/stm32f7xx_hal_rcc_ex.c ****     /* Enable the PLLI2S when it's used as clock source for SAI */
 164:Drivers/STM32F7xx_HAL_Driver/Src/stm32f7xx_hal_rcc_ex.c ****     if(PeriphClkInit->Sai2ClockSelection == RCC_SAI2CLKSOURCE_PLLI2S)
 120              		.loc 1 164 0
 121 007a 236C     		ldr	r3, [r4, #64]
 122 007c B3F5800F 		cmp	r3, #4194304
 123 0080 00F01281 		beq	.L75
 124              	.LVL9:
 125              	.L6:
 165:Drivers/STM32F7xx_HAL_Driver/Src/stm32f7xx_hal_rcc_ex.c ****     {
 166:Drivers/STM32F7xx_HAL_Driver/Src/stm32f7xx_hal_rcc_ex.c ****       plli2sused = 1;
 167:Drivers/STM32F7xx_HAL_Driver/Src/stm32f7xx_hal_rcc_ex.c ****     }
 168:Drivers/STM32F7xx_HAL_Driver/Src/stm32f7xx_hal_rcc_ex.c ****     /* Enable the PLLSAI when it's used as clock source for SAI */
 169:Drivers/STM32F7xx_HAL_Driver/Src/stm32f7xx_hal_rcc_ex.c ****     if(PeriphClkInit->Sai2ClockSelection == RCC_SAI2CLKSOURCE_PLLSAI)
 126              		.loc 1 169 0
 127 0084 03B9     		cbnz	r3, .L5
 170:Drivers/STM32F7xx_HAL_Driver/Src/stm32f7xx_hal_rcc_ex.c ****     {
 171:Drivers/STM32F7xx_HAL_Driver/Src/stm32f7xx_hal_rcc_ex.c ****       pllsaiused = 1;
 128              		.loc 1 171 0
 129 0086 0125     		movs	r5, #1
 130              	.LVL10:
 131              	.L5:
 172:Drivers/STM32F7xx_HAL_Driver/Src/stm32f7xx_hal_rcc_ex.c ****     }
 173:Drivers/STM32F7xx_HAL_Driver/Src/stm32f7xx_hal_rcc_ex.c ****   }
 174:Drivers/STM32F7xx_HAL_Driver/Src/stm32f7xx_hal_rcc_ex.c **** 
 175:Drivers/STM32F7xx_HAL_Driver/Src/stm32f7xx_hal_rcc_ex.c ****   /*-------------------------------------- SPDIF-RX Configuration ---------------------------------
 176:Drivers/STM32F7xx_HAL_Driver/Src/stm32f7xx_hal_rcc_ex.c ****   if(((PeriphClkInit->PeriphClockSelection) & RCC_PERIPHCLK_SPDIFRX) == RCC_PERIPHCLK_SPDIFRX)
 132              		.loc 1 176 0
 133 0088 2368     		ldr	r3, [r4]
 134 008a 13F0807F 		tst	r3, #16777216
 135 008e 00D0     		beq	.L7
 177:Drivers/STM32F7xx_HAL_Driver/Src/stm32f7xx_hal_rcc_ex.c ****   {
 178:Drivers/STM32F7xx_HAL_Driver/Src/stm32f7xx_hal_rcc_ex.c ****       plli2sused = 1;
 136              		.loc 1 178 0
 137 0090 0126     		movs	r6, #1
 138              	.LVL11:
 139              	.L7:
 179:Drivers/STM32F7xx_HAL_Driver/Src/stm32f7xx_hal_rcc_ex.c ****   }
 180:Drivers/STM32F7xx_HAL_Driver/Src/stm32f7xx_hal_rcc_ex.c **** 
 181:Drivers/STM32F7xx_HAL_Driver/Src/stm32f7xx_hal_rcc_ex.c ****   /*------------------------------------ RTC configuration --------------------------------------*/
 182:Drivers/STM32F7xx_HAL_Driver/Src/stm32f7xx_hal_rcc_ex.c ****   if(((PeriphClkInit->PeriphClockSelection) & RCC_PERIPHCLK_RTC) == (RCC_PERIPHCLK_RTC))
 140              		.loc 1 182 0
 141 0092 13F0200F 		tst	r3, #32
 142 0096 40F00981 		bne	.L76
 143              	.LVL12:
 144              	.L8:
 183:Drivers/STM32F7xx_HAL_Driver/Src/stm32f7xx_hal_rcc_ex.c ****   {
 184:Drivers/STM32F7xx_HAL_Driver/Src/stm32f7xx_hal_rcc_ex.c ****     /* Check for RTC Parameters used to output RTCCLK */
 185:Drivers/STM32F7xx_HAL_Driver/Src/stm32f7xx_hal_rcc_ex.c ****     assert_param(IS_RCC_RTCCLKSOURCE(PeriphClkInit->RTCClockSelection));
 186:Drivers/STM32F7xx_HAL_Driver/Src/stm32f7xx_hal_rcc_ex.c **** 
 187:Drivers/STM32F7xx_HAL_Driver/Src/stm32f7xx_hal_rcc_ex.c ****     /* Enable Power Clock*/
 188:Drivers/STM32F7xx_HAL_Driver/Src/stm32f7xx_hal_rcc_ex.c ****     __HAL_RCC_PWR_CLK_ENABLE();
 189:Drivers/STM32F7xx_HAL_Driver/Src/stm32f7xx_hal_rcc_ex.c **** 
 190:Drivers/STM32F7xx_HAL_Driver/Src/stm32f7xx_hal_rcc_ex.c ****     /* Enable write access to Backup domain */
 191:Drivers/STM32F7xx_HAL_Driver/Src/stm32f7xx_hal_rcc_ex.c ****     PWR->CR1 |= PWR_CR1_DBP;
 192:Drivers/STM32F7xx_HAL_Driver/Src/stm32f7xx_hal_rcc_ex.c **** 
 193:Drivers/STM32F7xx_HAL_Driver/Src/stm32f7xx_hal_rcc_ex.c ****     /* Get Start Tick*/
 194:Drivers/STM32F7xx_HAL_Driver/Src/stm32f7xx_hal_rcc_ex.c ****     tickstart = HAL_GetTick();
ARM GAS  /tmp/cciW4iGq.s 			page 7


 195:Drivers/STM32F7xx_HAL_Driver/Src/stm32f7xx_hal_rcc_ex.c **** 
 196:Drivers/STM32F7xx_HAL_Driver/Src/stm32f7xx_hal_rcc_ex.c ****     /* Wait for Backup domain Write protection disable */
 197:Drivers/STM32F7xx_HAL_Driver/Src/stm32f7xx_hal_rcc_ex.c ****     while((PWR->CR1 & PWR_CR1_DBP) == RESET)
 198:Drivers/STM32F7xx_HAL_Driver/Src/stm32f7xx_hal_rcc_ex.c ****     {
 199:Drivers/STM32F7xx_HAL_Driver/Src/stm32f7xx_hal_rcc_ex.c ****       if((HAL_GetTick() - tickstart) > RCC_DBP_TIMEOUT_VALUE)
 200:Drivers/STM32F7xx_HAL_Driver/Src/stm32f7xx_hal_rcc_ex.c ****       {
 201:Drivers/STM32F7xx_HAL_Driver/Src/stm32f7xx_hal_rcc_ex.c ****         return HAL_TIMEOUT;
 202:Drivers/STM32F7xx_HAL_Driver/Src/stm32f7xx_hal_rcc_ex.c ****       }
 203:Drivers/STM32F7xx_HAL_Driver/Src/stm32f7xx_hal_rcc_ex.c ****     }
 204:Drivers/STM32F7xx_HAL_Driver/Src/stm32f7xx_hal_rcc_ex.c **** 
 205:Drivers/STM32F7xx_HAL_Driver/Src/stm32f7xx_hal_rcc_ex.c ****     /* Reset the Backup domain only if the RTC Clock source selection is modified */
 206:Drivers/STM32F7xx_HAL_Driver/Src/stm32f7xx_hal_rcc_ex.c ****     tmpreg0 = (RCC->BDCR & RCC_BDCR_RTCSEL);
 207:Drivers/STM32F7xx_HAL_Driver/Src/stm32f7xx_hal_rcc_ex.c **** 
 208:Drivers/STM32F7xx_HAL_Driver/Src/stm32f7xx_hal_rcc_ex.c ****     if((tmpreg0 != 0x00000000U) && (tmpreg0 != (PeriphClkInit->RTCClockSelection & RCC_BDCR_RTCSEL)
 209:Drivers/STM32F7xx_HAL_Driver/Src/stm32f7xx_hal_rcc_ex.c ****     {
 210:Drivers/STM32F7xx_HAL_Driver/Src/stm32f7xx_hal_rcc_ex.c ****       /* Store the content of BDCR register before the reset of Backup Domain */
 211:Drivers/STM32F7xx_HAL_Driver/Src/stm32f7xx_hal_rcc_ex.c ****       tmpreg0 = (RCC->BDCR & ~(RCC_BDCR_RTCSEL));
 212:Drivers/STM32F7xx_HAL_Driver/Src/stm32f7xx_hal_rcc_ex.c **** 
 213:Drivers/STM32F7xx_HAL_Driver/Src/stm32f7xx_hal_rcc_ex.c ****       /* RTC Clock selection can be changed only if the Backup Domain is reset */
 214:Drivers/STM32F7xx_HAL_Driver/Src/stm32f7xx_hal_rcc_ex.c ****       __HAL_RCC_BACKUPRESET_FORCE();
 215:Drivers/STM32F7xx_HAL_Driver/Src/stm32f7xx_hal_rcc_ex.c ****       __HAL_RCC_BACKUPRESET_RELEASE();
 216:Drivers/STM32F7xx_HAL_Driver/Src/stm32f7xx_hal_rcc_ex.c **** 
 217:Drivers/STM32F7xx_HAL_Driver/Src/stm32f7xx_hal_rcc_ex.c ****       /* Restore the Content of BDCR register */
 218:Drivers/STM32F7xx_HAL_Driver/Src/stm32f7xx_hal_rcc_ex.c ****       RCC->BDCR = tmpreg0;
 219:Drivers/STM32F7xx_HAL_Driver/Src/stm32f7xx_hal_rcc_ex.c **** 
 220:Drivers/STM32F7xx_HAL_Driver/Src/stm32f7xx_hal_rcc_ex.c ****       /* Wait for LSE reactivation if LSE was enable prior to Backup Domain reset */
 221:Drivers/STM32F7xx_HAL_Driver/Src/stm32f7xx_hal_rcc_ex.c ****       if (HAL_IS_BIT_SET(RCC->BDCR, RCC_BDCR_LSEON))
 222:Drivers/STM32F7xx_HAL_Driver/Src/stm32f7xx_hal_rcc_ex.c ****       {
 223:Drivers/STM32F7xx_HAL_Driver/Src/stm32f7xx_hal_rcc_ex.c ****         /* Get Start Tick*/
 224:Drivers/STM32F7xx_HAL_Driver/Src/stm32f7xx_hal_rcc_ex.c ****         tickstart = HAL_GetTick();
 225:Drivers/STM32F7xx_HAL_Driver/Src/stm32f7xx_hal_rcc_ex.c **** 
 226:Drivers/STM32F7xx_HAL_Driver/Src/stm32f7xx_hal_rcc_ex.c ****         /* Wait till LSE is ready */
 227:Drivers/STM32F7xx_HAL_Driver/Src/stm32f7xx_hal_rcc_ex.c ****         while(__HAL_RCC_GET_FLAG(RCC_FLAG_LSERDY) == RESET)
 228:Drivers/STM32F7xx_HAL_Driver/Src/stm32f7xx_hal_rcc_ex.c ****         {
 229:Drivers/STM32F7xx_HAL_Driver/Src/stm32f7xx_hal_rcc_ex.c ****           if((HAL_GetTick() - tickstart ) > RCC_LSE_TIMEOUT_VALUE)
 230:Drivers/STM32F7xx_HAL_Driver/Src/stm32f7xx_hal_rcc_ex.c ****           {
 231:Drivers/STM32F7xx_HAL_Driver/Src/stm32f7xx_hal_rcc_ex.c ****             return HAL_TIMEOUT;
 232:Drivers/STM32F7xx_HAL_Driver/Src/stm32f7xx_hal_rcc_ex.c ****           }
 233:Drivers/STM32F7xx_HAL_Driver/Src/stm32f7xx_hal_rcc_ex.c ****         }
 234:Drivers/STM32F7xx_HAL_Driver/Src/stm32f7xx_hal_rcc_ex.c ****       }
 235:Drivers/STM32F7xx_HAL_Driver/Src/stm32f7xx_hal_rcc_ex.c ****     }
 236:Drivers/STM32F7xx_HAL_Driver/Src/stm32f7xx_hal_rcc_ex.c ****     __HAL_RCC_RTC_CONFIG(PeriphClkInit->RTCClockSelection);
 237:Drivers/STM32F7xx_HAL_Driver/Src/stm32f7xx_hal_rcc_ex.c ****   }
 238:Drivers/STM32F7xx_HAL_Driver/Src/stm32f7xx_hal_rcc_ex.c **** 
 239:Drivers/STM32F7xx_HAL_Driver/Src/stm32f7xx_hal_rcc_ex.c ****   /*------------------------------------ TIM configuration --------------------------------------*/
 240:Drivers/STM32F7xx_HAL_Driver/Src/stm32f7xx_hal_rcc_ex.c ****   if(((PeriphClkInit->PeriphClockSelection) & RCC_PERIPHCLK_TIM) == (RCC_PERIPHCLK_TIM))
 145              		.loc 1 240 0
 146 009a 2368     		ldr	r3, [r4]
 147 009c 13F0100F 		tst	r3, #16
 148 00a0 0CD0     		beq	.L17
 241:Drivers/STM32F7xx_HAL_Driver/Src/stm32f7xx_hal_rcc_ex.c ****   {
 242:Drivers/STM32F7xx_HAL_Driver/Src/stm32f7xx_hal_rcc_ex.c ****     /* Check the parameters */
 243:Drivers/STM32F7xx_HAL_Driver/Src/stm32f7xx_hal_rcc_ex.c ****     assert_param(IS_RCC_TIMPRES(PeriphClkInit->TIMPresSelection));
 244:Drivers/STM32F7xx_HAL_Driver/Src/stm32f7xx_hal_rcc_ex.c **** 
 245:Drivers/STM32F7xx_HAL_Driver/Src/stm32f7xx_hal_rcc_ex.c ****     /* Configure Timer Prescaler */
 246:Drivers/STM32F7xx_HAL_Driver/Src/stm32f7xx_hal_rcc_ex.c ****     __HAL_RCC_TIMCLKPRESCALER(PeriphClkInit->TIMPresSelection);
 149              		.loc 1 246 0
ARM GAS  /tmp/cciW4iGq.s 			page 8


 150 00a2 914B     		ldr	r3, .L86
 151 00a4 D3F88C20 		ldr	r2, [r3, #140]
 152 00a8 22F08072 		bic	r2, r2, #16777216
 153 00ac C3F88C20 		str	r2, [r3, #140]
 154 00b0 D3F88C20 		ldr	r2, [r3, #140]
 155 00b4 A16B     		ldr	r1, [r4, #56]
 156 00b6 0A43     		orrs	r2, r2, r1
 157 00b8 C3F88C20 		str	r2, [r3, #140]
 158              	.L17:
 247:Drivers/STM32F7xx_HAL_Driver/Src/stm32f7xx_hal_rcc_ex.c ****   }
 248:Drivers/STM32F7xx_HAL_Driver/Src/stm32f7xx_hal_rcc_ex.c **** 
 249:Drivers/STM32F7xx_HAL_Driver/Src/stm32f7xx_hal_rcc_ex.c ****   /*-------------------------------------- I2C1 Configuration -----------------------------------*/
 250:Drivers/STM32F7xx_HAL_Driver/Src/stm32f7xx_hal_rcc_ex.c ****   if(((PeriphClkInit->PeriphClockSelection) & RCC_PERIPHCLK_I2C1) == RCC_PERIPHCLK_I2C1)
 159              		.loc 1 250 0
 160 00bc 2368     		ldr	r3, [r4]
 161 00be 13F4804F 		tst	r3, #16384
 162 00c2 08D0     		beq	.L18
 251:Drivers/STM32F7xx_HAL_Driver/Src/stm32f7xx_hal_rcc_ex.c ****   {
 252:Drivers/STM32F7xx_HAL_Driver/Src/stm32f7xx_hal_rcc_ex.c ****     /* Check the parameters */
 253:Drivers/STM32F7xx_HAL_Driver/Src/stm32f7xx_hal_rcc_ex.c ****     assert_param(IS_RCC_I2C1CLKSOURCE(PeriphClkInit->I2c1ClockSelection));
 254:Drivers/STM32F7xx_HAL_Driver/Src/stm32f7xx_hal_rcc_ex.c **** 
 255:Drivers/STM32F7xx_HAL_Driver/Src/stm32f7xx_hal_rcc_ex.c ****     /* Configure the I2C1 clock source */
 256:Drivers/STM32F7xx_HAL_Driver/Src/stm32f7xx_hal_rcc_ex.c ****     __HAL_RCC_I2C1_CONFIG(PeriphClkInit->I2c1ClockSelection);
 163              		.loc 1 256 0
 164 00c4 884A     		ldr	r2, .L86
 165 00c6 D2F89030 		ldr	r3, [r2, #144]
 166 00ca 23F44033 		bic	r3, r3, #196608
 167 00ce 616E     		ldr	r1, [r4, #100]
 168 00d0 0B43     		orrs	r3, r3, r1
 169 00d2 C2F89030 		str	r3, [r2, #144]
 170              	.L18:
 257:Drivers/STM32F7xx_HAL_Driver/Src/stm32f7xx_hal_rcc_ex.c ****   }
 258:Drivers/STM32F7xx_HAL_Driver/Src/stm32f7xx_hal_rcc_ex.c **** 
 259:Drivers/STM32F7xx_HAL_Driver/Src/stm32f7xx_hal_rcc_ex.c ****   /*-------------------------------------- I2C2 Configuration -----------------------------------*/
 260:Drivers/STM32F7xx_HAL_Driver/Src/stm32f7xx_hal_rcc_ex.c ****   if(((PeriphClkInit->PeriphClockSelection) & RCC_PERIPHCLK_I2C2) == RCC_PERIPHCLK_I2C2)
 171              		.loc 1 260 0
 172 00d6 2368     		ldr	r3, [r4]
 173 00d8 13F4004F 		tst	r3, #32768
 174 00dc 08D0     		beq	.L19
 261:Drivers/STM32F7xx_HAL_Driver/Src/stm32f7xx_hal_rcc_ex.c ****   {
 262:Drivers/STM32F7xx_HAL_Driver/Src/stm32f7xx_hal_rcc_ex.c ****     /* Check the parameters */
 263:Drivers/STM32F7xx_HAL_Driver/Src/stm32f7xx_hal_rcc_ex.c ****     assert_param(IS_RCC_I2C2CLKSOURCE(PeriphClkInit->I2c2ClockSelection));
 264:Drivers/STM32F7xx_HAL_Driver/Src/stm32f7xx_hal_rcc_ex.c **** 
 265:Drivers/STM32F7xx_HAL_Driver/Src/stm32f7xx_hal_rcc_ex.c ****     /* Configure the I2C2 clock source */
 266:Drivers/STM32F7xx_HAL_Driver/Src/stm32f7xx_hal_rcc_ex.c ****     __HAL_RCC_I2C2_CONFIG(PeriphClkInit->I2c2ClockSelection);
 175              		.loc 1 266 0
 176 00de 824A     		ldr	r2, .L86
 177 00e0 D2F89030 		ldr	r3, [r2, #144]
 178 00e4 23F44023 		bic	r3, r3, #786432
 179 00e8 A16E     		ldr	r1, [r4, #104]
 180 00ea 0B43     		orrs	r3, r3, r1
 181 00ec C2F89030 		str	r3, [r2, #144]
 182              	.L19:
 267:Drivers/STM32F7xx_HAL_Driver/Src/stm32f7xx_hal_rcc_ex.c ****   }
 268:Drivers/STM32F7xx_HAL_Driver/Src/stm32f7xx_hal_rcc_ex.c **** 
 269:Drivers/STM32F7xx_HAL_Driver/Src/stm32f7xx_hal_rcc_ex.c ****   /*-------------------------------------- I2C3 Configuration -----------------------------------*/
 270:Drivers/STM32F7xx_HAL_Driver/Src/stm32f7xx_hal_rcc_ex.c ****   if(((PeriphClkInit->PeriphClockSelection) & RCC_PERIPHCLK_I2C3) == RCC_PERIPHCLK_I2C3)
ARM GAS  /tmp/cciW4iGq.s 			page 9


 183              		.loc 1 270 0
 184 00f0 2368     		ldr	r3, [r4]
 185 00f2 13F4803F 		tst	r3, #65536
 186 00f6 08D0     		beq	.L20
 271:Drivers/STM32F7xx_HAL_Driver/Src/stm32f7xx_hal_rcc_ex.c ****   {
 272:Drivers/STM32F7xx_HAL_Driver/Src/stm32f7xx_hal_rcc_ex.c ****     /* Check the parameters */
 273:Drivers/STM32F7xx_HAL_Driver/Src/stm32f7xx_hal_rcc_ex.c ****     assert_param(IS_RCC_I2C3CLKSOURCE(PeriphClkInit->I2c3ClockSelection));
 274:Drivers/STM32F7xx_HAL_Driver/Src/stm32f7xx_hal_rcc_ex.c **** 
 275:Drivers/STM32F7xx_HAL_Driver/Src/stm32f7xx_hal_rcc_ex.c ****     /* Configure the I2C3 clock source */
 276:Drivers/STM32F7xx_HAL_Driver/Src/stm32f7xx_hal_rcc_ex.c ****     __HAL_RCC_I2C3_CONFIG(PeriphClkInit->I2c3ClockSelection);
 187              		.loc 1 276 0
 188 00f8 7B4A     		ldr	r2, .L86
 189 00fa D2F89030 		ldr	r3, [r2, #144]
 190 00fe 23F44013 		bic	r3, r3, #3145728
 191 0102 E16E     		ldr	r1, [r4, #108]
 192 0104 0B43     		orrs	r3, r3, r1
 193 0106 C2F89030 		str	r3, [r2, #144]
 194              	.L20:
 277:Drivers/STM32F7xx_HAL_Driver/Src/stm32f7xx_hal_rcc_ex.c ****   }
 278:Drivers/STM32F7xx_HAL_Driver/Src/stm32f7xx_hal_rcc_ex.c **** 
 279:Drivers/STM32F7xx_HAL_Driver/Src/stm32f7xx_hal_rcc_ex.c ****   /*-------------------------------------- I2C4 Configuration -----------------------------------*/
 280:Drivers/STM32F7xx_HAL_Driver/Src/stm32f7xx_hal_rcc_ex.c ****   if(((PeriphClkInit->PeriphClockSelection) & RCC_PERIPHCLK_I2C4) == RCC_PERIPHCLK_I2C4)
 195              		.loc 1 280 0
 196 010a 2368     		ldr	r3, [r4]
 197 010c 13F4003F 		tst	r3, #131072
 198 0110 08D0     		beq	.L21
 281:Drivers/STM32F7xx_HAL_Driver/Src/stm32f7xx_hal_rcc_ex.c ****   {
 282:Drivers/STM32F7xx_HAL_Driver/Src/stm32f7xx_hal_rcc_ex.c ****     /* Check the parameters */
 283:Drivers/STM32F7xx_HAL_Driver/Src/stm32f7xx_hal_rcc_ex.c ****     assert_param(IS_RCC_I2C4CLKSOURCE(PeriphClkInit->I2c4ClockSelection));
 284:Drivers/STM32F7xx_HAL_Driver/Src/stm32f7xx_hal_rcc_ex.c **** 
 285:Drivers/STM32F7xx_HAL_Driver/Src/stm32f7xx_hal_rcc_ex.c ****     /* Configure the I2C4 clock source */
 286:Drivers/STM32F7xx_HAL_Driver/Src/stm32f7xx_hal_rcc_ex.c ****     __HAL_RCC_I2C4_CONFIG(PeriphClkInit->I2c4ClockSelection);
 199              		.loc 1 286 0
 200 0112 754A     		ldr	r2, .L86
 201 0114 D2F89030 		ldr	r3, [r2, #144]
 202 0118 23F44003 		bic	r3, r3, #12582912
 203 011c 216F     		ldr	r1, [r4, #112]
 204 011e 0B43     		orrs	r3, r3, r1
 205 0120 C2F89030 		str	r3, [r2, #144]
 206              	.L21:
 287:Drivers/STM32F7xx_HAL_Driver/Src/stm32f7xx_hal_rcc_ex.c ****   }
 288:Drivers/STM32F7xx_HAL_Driver/Src/stm32f7xx_hal_rcc_ex.c **** 
 289:Drivers/STM32F7xx_HAL_Driver/Src/stm32f7xx_hal_rcc_ex.c ****   /*-------------------------------------- USART1 Configuration -----------------------------------
 290:Drivers/STM32F7xx_HAL_Driver/Src/stm32f7xx_hal_rcc_ex.c ****   if(((PeriphClkInit->PeriphClockSelection) & RCC_PERIPHCLK_USART1) == RCC_PERIPHCLK_USART1)
 207              		.loc 1 290 0
 208 0124 2368     		ldr	r3, [r4]
 209 0126 13F0400F 		tst	r3, #64
 210 012a 08D0     		beq	.L22
 291:Drivers/STM32F7xx_HAL_Driver/Src/stm32f7xx_hal_rcc_ex.c ****   {
 292:Drivers/STM32F7xx_HAL_Driver/Src/stm32f7xx_hal_rcc_ex.c ****     /* Check the parameters */
 293:Drivers/STM32F7xx_HAL_Driver/Src/stm32f7xx_hal_rcc_ex.c ****     assert_param(IS_RCC_USART1CLKSOURCE(PeriphClkInit->Usart1ClockSelection));
 294:Drivers/STM32F7xx_HAL_Driver/Src/stm32f7xx_hal_rcc_ex.c **** 
 295:Drivers/STM32F7xx_HAL_Driver/Src/stm32f7xx_hal_rcc_ex.c ****     /* Configure the USART1 clock source */
 296:Drivers/STM32F7xx_HAL_Driver/Src/stm32f7xx_hal_rcc_ex.c ****     __HAL_RCC_USART1_CONFIG(PeriphClkInit->Usart1ClockSelection);
 211              		.loc 1 296 0
 212 012c 6E4A     		ldr	r2, .L86
 213 012e D2F89030 		ldr	r3, [r2, #144]
ARM GAS  /tmp/cciW4iGq.s 			page 10


 214 0132 23F00303 		bic	r3, r3, #3
 215 0136 616C     		ldr	r1, [r4, #68]
 216 0138 0B43     		orrs	r3, r3, r1
 217 013a C2F89030 		str	r3, [r2, #144]
 218              	.L22:
 297:Drivers/STM32F7xx_HAL_Driver/Src/stm32f7xx_hal_rcc_ex.c ****   }
 298:Drivers/STM32F7xx_HAL_Driver/Src/stm32f7xx_hal_rcc_ex.c **** 
 299:Drivers/STM32F7xx_HAL_Driver/Src/stm32f7xx_hal_rcc_ex.c ****   /*-------------------------------------- USART2 Configuration -----------------------------------
 300:Drivers/STM32F7xx_HAL_Driver/Src/stm32f7xx_hal_rcc_ex.c ****   if(((PeriphClkInit->PeriphClockSelection) & RCC_PERIPHCLK_USART2) == RCC_PERIPHCLK_USART2)
 219              		.loc 1 300 0
 220 013e 2368     		ldr	r3, [r4]
 221 0140 13F0800F 		tst	r3, #128
 222 0144 08D0     		beq	.L23
 301:Drivers/STM32F7xx_HAL_Driver/Src/stm32f7xx_hal_rcc_ex.c ****   {
 302:Drivers/STM32F7xx_HAL_Driver/Src/stm32f7xx_hal_rcc_ex.c ****     /* Check the parameters */
 303:Drivers/STM32F7xx_HAL_Driver/Src/stm32f7xx_hal_rcc_ex.c ****     assert_param(IS_RCC_USART2CLKSOURCE(PeriphClkInit->Usart2ClockSelection));
 304:Drivers/STM32F7xx_HAL_Driver/Src/stm32f7xx_hal_rcc_ex.c **** 
 305:Drivers/STM32F7xx_HAL_Driver/Src/stm32f7xx_hal_rcc_ex.c ****     /* Configure the USART2 clock source */
 306:Drivers/STM32F7xx_HAL_Driver/Src/stm32f7xx_hal_rcc_ex.c ****     __HAL_RCC_USART2_CONFIG(PeriphClkInit->Usart2ClockSelection);
 223              		.loc 1 306 0
 224 0146 684A     		ldr	r2, .L86
 225 0148 D2F89030 		ldr	r3, [r2, #144]
 226 014c 23F00C03 		bic	r3, r3, #12
 227 0150 A16C     		ldr	r1, [r4, #72]
 228 0152 0B43     		orrs	r3, r3, r1
 229 0154 C2F89030 		str	r3, [r2, #144]
 230              	.L23:
 307:Drivers/STM32F7xx_HAL_Driver/Src/stm32f7xx_hal_rcc_ex.c ****   }
 308:Drivers/STM32F7xx_HAL_Driver/Src/stm32f7xx_hal_rcc_ex.c **** 
 309:Drivers/STM32F7xx_HAL_Driver/Src/stm32f7xx_hal_rcc_ex.c ****   /*-------------------------------------- USART3 Configuration -----------------------------------
 310:Drivers/STM32F7xx_HAL_Driver/Src/stm32f7xx_hal_rcc_ex.c ****   if(((PeriphClkInit->PeriphClockSelection) & RCC_PERIPHCLK_USART3) == RCC_PERIPHCLK_USART3)
 231              		.loc 1 310 0
 232 0158 2368     		ldr	r3, [r4]
 233 015a 13F4807F 		tst	r3, #256
 234 015e 08D0     		beq	.L24
 311:Drivers/STM32F7xx_HAL_Driver/Src/stm32f7xx_hal_rcc_ex.c ****   {
 312:Drivers/STM32F7xx_HAL_Driver/Src/stm32f7xx_hal_rcc_ex.c ****     /* Check the parameters */
 313:Drivers/STM32F7xx_HAL_Driver/Src/stm32f7xx_hal_rcc_ex.c ****     assert_param(IS_RCC_USART3CLKSOURCE(PeriphClkInit->Usart3ClockSelection));
 314:Drivers/STM32F7xx_HAL_Driver/Src/stm32f7xx_hal_rcc_ex.c **** 
 315:Drivers/STM32F7xx_HAL_Driver/Src/stm32f7xx_hal_rcc_ex.c ****     /* Configure the USART3 clock source */
 316:Drivers/STM32F7xx_HAL_Driver/Src/stm32f7xx_hal_rcc_ex.c ****     __HAL_RCC_USART3_CONFIG(PeriphClkInit->Usart3ClockSelection);
 235              		.loc 1 316 0
 236 0160 614A     		ldr	r2, .L86
 237 0162 D2F89030 		ldr	r3, [r2, #144]
 238 0166 23F03003 		bic	r3, r3, #48
 239 016a E16C     		ldr	r1, [r4, #76]
 240 016c 0B43     		orrs	r3, r3, r1
 241 016e C2F89030 		str	r3, [r2, #144]
 242              	.L24:
 317:Drivers/STM32F7xx_HAL_Driver/Src/stm32f7xx_hal_rcc_ex.c ****   }
 318:Drivers/STM32F7xx_HAL_Driver/Src/stm32f7xx_hal_rcc_ex.c **** 
 319:Drivers/STM32F7xx_HAL_Driver/Src/stm32f7xx_hal_rcc_ex.c ****   /*-------------------------------------- UART4 Configuration -----------------------------------*
 320:Drivers/STM32F7xx_HAL_Driver/Src/stm32f7xx_hal_rcc_ex.c ****   if(((PeriphClkInit->PeriphClockSelection) & RCC_PERIPHCLK_UART4) == RCC_PERIPHCLK_UART4)
 243              		.loc 1 320 0
 244 0172 2368     		ldr	r3, [r4]
 245 0174 13F4007F 		tst	r3, #512
 246 0178 08D0     		beq	.L25
ARM GAS  /tmp/cciW4iGq.s 			page 11


 321:Drivers/STM32F7xx_HAL_Driver/Src/stm32f7xx_hal_rcc_ex.c ****   {
 322:Drivers/STM32F7xx_HAL_Driver/Src/stm32f7xx_hal_rcc_ex.c ****     /* Check the parameters */
 323:Drivers/STM32F7xx_HAL_Driver/Src/stm32f7xx_hal_rcc_ex.c ****     assert_param(IS_RCC_UART4CLKSOURCE(PeriphClkInit->Uart4ClockSelection));
 324:Drivers/STM32F7xx_HAL_Driver/Src/stm32f7xx_hal_rcc_ex.c **** 
 325:Drivers/STM32F7xx_HAL_Driver/Src/stm32f7xx_hal_rcc_ex.c ****     /* Configure the UART4 clock source */
 326:Drivers/STM32F7xx_HAL_Driver/Src/stm32f7xx_hal_rcc_ex.c ****     __HAL_RCC_UART4_CONFIG(PeriphClkInit->Uart4ClockSelection);
 247              		.loc 1 326 0
 248 017a 5B4A     		ldr	r2, .L86
 249 017c D2F89030 		ldr	r3, [r2, #144]
 250 0180 23F0C003 		bic	r3, r3, #192
 251 0184 216D     		ldr	r1, [r4, #80]
 252 0186 0B43     		orrs	r3, r3, r1
 253 0188 C2F89030 		str	r3, [r2, #144]
 254              	.L25:
 327:Drivers/STM32F7xx_HAL_Driver/Src/stm32f7xx_hal_rcc_ex.c ****   }
 328:Drivers/STM32F7xx_HAL_Driver/Src/stm32f7xx_hal_rcc_ex.c **** 
 329:Drivers/STM32F7xx_HAL_Driver/Src/stm32f7xx_hal_rcc_ex.c ****   /*-------------------------------------- UART5 Configuration -----------------------------------*
 330:Drivers/STM32F7xx_HAL_Driver/Src/stm32f7xx_hal_rcc_ex.c ****   if(((PeriphClkInit->PeriphClockSelection) & RCC_PERIPHCLK_UART5) == RCC_PERIPHCLK_UART5)
 255              		.loc 1 330 0
 256 018c 2368     		ldr	r3, [r4]
 257 018e 13F4806F 		tst	r3, #1024
 258 0192 08D0     		beq	.L26
 331:Drivers/STM32F7xx_HAL_Driver/Src/stm32f7xx_hal_rcc_ex.c ****   {
 332:Drivers/STM32F7xx_HAL_Driver/Src/stm32f7xx_hal_rcc_ex.c ****     /* Check the parameters */
 333:Drivers/STM32F7xx_HAL_Driver/Src/stm32f7xx_hal_rcc_ex.c ****     assert_param(IS_RCC_UART5CLKSOURCE(PeriphClkInit->Uart5ClockSelection));
 334:Drivers/STM32F7xx_HAL_Driver/Src/stm32f7xx_hal_rcc_ex.c **** 
 335:Drivers/STM32F7xx_HAL_Driver/Src/stm32f7xx_hal_rcc_ex.c ****     /* Configure the UART5 clock source */
 336:Drivers/STM32F7xx_HAL_Driver/Src/stm32f7xx_hal_rcc_ex.c ****     __HAL_RCC_UART5_CONFIG(PeriphClkInit->Uart5ClockSelection);
 259              		.loc 1 336 0
 260 0194 544A     		ldr	r2, .L86
 261 0196 D2F89030 		ldr	r3, [r2, #144]
 262 019a 23F44073 		bic	r3, r3, #768
 263 019e 616D     		ldr	r1, [r4, #84]
 264 01a0 0B43     		orrs	r3, r3, r1
 265 01a2 C2F89030 		str	r3, [r2, #144]
 266              	.L26:
 337:Drivers/STM32F7xx_HAL_Driver/Src/stm32f7xx_hal_rcc_ex.c ****   }
 338:Drivers/STM32F7xx_HAL_Driver/Src/stm32f7xx_hal_rcc_ex.c **** 
 339:Drivers/STM32F7xx_HAL_Driver/Src/stm32f7xx_hal_rcc_ex.c ****   /*-------------------------------------- USART6 Configuration -----------------------------------
 340:Drivers/STM32F7xx_HAL_Driver/Src/stm32f7xx_hal_rcc_ex.c ****   if(((PeriphClkInit->PeriphClockSelection) & RCC_PERIPHCLK_USART6) == RCC_PERIPHCLK_USART6)
 267              		.loc 1 340 0
 268 01a6 2368     		ldr	r3, [r4]
 269 01a8 13F4006F 		tst	r3, #2048
 270 01ac 08D0     		beq	.L27
 341:Drivers/STM32F7xx_HAL_Driver/Src/stm32f7xx_hal_rcc_ex.c ****   {
 342:Drivers/STM32F7xx_HAL_Driver/Src/stm32f7xx_hal_rcc_ex.c ****     /* Check the parameters */
 343:Drivers/STM32F7xx_HAL_Driver/Src/stm32f7xx_hal_rcc_ex.c ****     assert_param(IS_RCC_USART6CLKSOURCE(PeriphClkInit->Usart6ClockSelection));
 344:Drivers/STM32F7xx_HAL_Driver/Src/stm32f7xx_hal_rcc_ex.c **** 
 345:Drivers/STM32F7xx_HAL_Driver/Src/stm32f7xx_hal_rcc_ex.c ****     /* Configure the USART6 clock source */
 346:Drivers/STM32F7xx_HAL_Driver/Src/stm32f7xx_hal_rcc_ex.c ****     __HAL_RCC_USART6_CONFIG(PeriphClkInit->Usart6ClockSelection);
 271              		.loc 1 346 0
 272 01ae 4E4A     		ldr	r2, .L86
 273 01b0 D2F89030 		ldr	r3, [r2, #144]
 274 01b4 23F44063 		bic	r3, r3, #3072
 275 01b8 A16D     		ldr	r1, [r4, #88]
 276 01ba 0B43     		orrs	r3, r3, r1
 277 01bc C2F89030 		str	r3, [r2, #144]
ARM GAS  /tmp/cciW4iGq.s 			page 12


 278              	.L27:
 347:Drivers/STM32F7xx_HAL_Driver/Src/stm32f7xx_hal_rcc_ex.c ****   }
 348:Drivers/STM32F7xx_HAL_Driver/Src/stm32f7xx_hal_rcc_ex.c **** 
 349:Drivers/STM32F7xx_HAL_Driver/Src/stm32f7xx_hal_rcc_ex.c ****   /*-------------------------------------- UART7 Configuration -----------------------------------*
 350:Drivers/STM32F7xx_HAL_Driver/Src/stm32f7xx_hal_rcc_ex.c ****   if(((PeriphClkInit->PeriphClockSelection) & RCC_PERIPHCLK_UART7) == RCC_PERIPHCLK_UART7)
 279              		.loc 1 350 0
 280 01c0 2368     		ldr	r3, [r4]
 281 01c2 13F4805F 		tst	r3, #4096
 282 01c6 08D0     		beq	.L28
 351:Drivers/STM32F7xx_HAL_Driver/Src/stm32f7xx_hal_rcc_ex.c ****   {
 352:Drivers/STM32F7xx_HAL_Driver/Src/stm32f7xx_hal_rcc_ex.c ****     /* Check the parameters */
 353:Drivers/STM32F7xx_HAL_Driver/Src/stm32f7xx_hal_rcc_ex.c ****     assert_param(IS_RCC_UART7CLKSOURCE(PeriphClkInit->Uart7ClockSelection));
 354:Drivers/STM32F7xx_HAL_Driver/Src/stm32f7xx_hal_rcc_ex.c **** 
 355:Drivers/STM32F7xx_HAL_Driver/Src/stm32f7xx_hal_rcc_ex.c ****     /* Configure the UART7 clock source */
 356:Drivers/STM32F7xx_HAL_Driver/Src/stm32f7xx_hal_rcc_ex.c ****     __HAL_RCC_UART7_CONFIG(PeriphClkInit->Uart7ClockSelection);
 283              		.loc 1 356 0
 284 01c8 474A     		ldr	r2, .L86
 285 01ca D2F89030 		ldr	r3, [r2, #144]
 286 01ce 23F44053 		bic	r3, r3, #12288
 287 01d2 E16D     		ldr	r1, [r4, #92]
 288 01d4 0B43     		orrs	r3, r3, r1
 289 01d6 C2F89030 		str	r3, [r2, #144]
 290              	.L28:
 357:Drivers/STM32F7xx_HAL_Driver/Src/stm32f7xx_hal_rcc_ex.c ****   }
 358:Drivers/STM32F7xx_HAL_Driver/Src/stm32f7xx_hal_rcc_ex.c **** 
 359:Drivers/STM32F7xx_HAL_Driver/Src/stm32f7xx_hal_rcc_ex.c ****   /*-------------------------------------- UART8 Configuration -----------------------------------*
 360:Drivers/STM32F7xx_HAL_Driver/Src/stm32f7xx_hal_rcc_ex.c ****   if(((PeriphClkInit->PeriphClockSelection) & RCC_PERIPHCLK_UART8) == RCC_PERIPHCLK_UART8)
 291              		.loc 1 360 0
 292 01da 2368     		ldr	r3, [r4]
 293 01dc 13F4005F 		tst	r3, #8192
 294 01e0 08D0     		beq	.L29
 361:Drivers/STM32F7xx_HAL_Driver/Src/stm32f7xx_hal_rcc_ex.c ****   {
 362:Drivers/STM32F7xx_HAL_Driver/Src/stm32f7xx_hal_rcc_ex.c ****     /* Check the parameters */
 363:Drivers/STM32F7xx_HAL_Driver/Src/stm32f7xx_hal_rcc_ex.c ****     assert_param(IS_RCC_UART8CLKSOURCE(PeriphClkInit->Uart8ClockSelection));
 364:Drivers/STM32F7xx_HAL_Driver/Src/stm32f7xx_hal_rcc_ex.c **** 
 365:Drivers/STM32F7xx_HAL_Driver/Src/stm32f7xx_hal_rcc_ex.c ****     /* Configure the UART8 clock source */
 366:Drivers/STM32F7xx_HAL_Driver/Src/stm32f7xx_hal_rcc_ex.c ****     __HAL_RCC_UART8_CONFIG(PeriphClkInit->Uart8ClockSelection);
 295              		.loc 1 366 0
 296 01e2 414A     		ldr	r2, .L86
 297 01e4 D2F89030 		ldr	r3, [r2, #144]
 298 01e8 23F44043 		bic	r3, r3, #49152
 299 01ec 216E     		ldr	r1, [r4, #96]
 300 01ee 0B43     		orrs	r3, r3, r1
 301 01f0 C2F89030 		str	r3, [r2, #144]
 302              	.L29:
 367:Drivers/STM32F7xx_HAL_Driver/Src/stm32f7xx_hal_rcc_ex.c ****   }
 368:Drivers/STM32F7xx_HAL_Driver/Src/stm32f7xx_hal_rcc_ex.c **** 
 369:Drivers/STM32F7xx_HAL_Driver/Src/stm32f7xx_hal_rcc_ex.c ****   /*--------------------------------------- CEC Configuration -----------------------------------*/
 370:Drivers/STM32F7xx_HAL_Driver/Src/stm32f7xx_hal_rcc_ex.c ****   if(((PeriphClkInit->PeriphClockSelection) & RCC_PERIPHCLK_CEC) == RCC_PERIPHCLK_CEC)
 303              		.loc 1 370 0
 304 01f4 2368     		ldr	r3, [r4]
 305 01f6 13F4800F 		tst	r3, #4194304
 306 01fa 08D0     		beq	.L30
 371:Drivers/STM32F7xx_HAL_Driver/Src/stm32f7xx_hal_rcc_ex.c ****   {
 372:Drivers/STM32F7xx_HAL_Driver/Src/stm32f7xx_hal_rcc_ex.c ****     /* Check the parameters */
 373:Drivers/STM32F7xx_HAL_Driver/Src/stm32f7xx_hal_rcc_ex.c ****     assert_param(IS_RCC_CECCLKSOURCE(PeriphClkInit->CecClockSelection));
 374:Drivers/STM32F7xx_HAL_Driver/Src/stm32f7xx_hal_rcc_ex.c **** 
ARM GAS  /tmp/cciW4iGq.s 			page 13


 375:Drivers/STM32F7xx_HAL_Driver/Src/stm32f7xx_hal_rcc_ex.c ****     /* Configure the CEC clock source */
 376:Drivers/STM32F7xx_HAL_Driver/Src/stm32f7xx_hal_rcc_ex.c ****     __HAL_RCC_CEC_CONFIG(PeriphClkInit->CecClockSelection);
 307              		.loc 1 376 0
 308 01fc 3A4A     		ldr	r2, .L86
 309 01fe D2F89030 		ldr	r3, [r2, #144]
 310 0202 23F08063 		bic	r3, r3, #67108864
 311 0206 A16F     		ldr	r1, [r4, #120]
 312 0208 0B43     		orrs	r3, r3, r1
 313 020a C2F89030 		str	r3, [r2, #144]
 314              	.L30:
 377:Drivers/STM32F7xx_HAL_Driver/Src/stm32f7xx_hal_rcc_ex.c ****   }
 378:Drivers/STM32F7xx_HAL_Driver/Src/stm32f7xx_hal_rcc_ex.c **** 
 379:Drivers/STM32F7xx_HAL_Driver/Src/stm32f7xx_hal_rcc_ex.c ****   /*-------------------------------------- CK48 Configuration -----------------------------------*/
 380:Drivers/STM32F7xx_HAL_Driver/Src/stm32f7xx_hal_rcc_ex.c ****   if(((PeriphClkInit->PeriphClockSelection) & RCC_PERIPHCLK_CLK48) == RCC_PERIPHCLK_CLK48)
 315              		.loc 1 380 0
 316 020e 2368     		ldr	r3, [r4]
 317 0210 13F4001F 		tst	r3, #2097152
 318 0214 0DD0     		beq	.L31
 381:Drivers/STM32F7xx_HAL_Driver/Src/stm32f7xx_hal_rcc_ex.c ****   {
 382:Drivers/STM32F7xx_HAL_Driver/Src/stm32f7xx_hal_rcc_ex.c ****     /* Check the parameters */
 383:Drivers/STM32F7xx_HAL_Driver/Src/stm32f7xx_hal_rcc_ex.c ****     assert_param(IS_RCC_CLK48SOURCE(PeriphClkInit->Clk48ClockSelection));
 384:Drivers/STM32F7xx_HAL_Driver/Src/stm32f7xx_hal_rcc_ex.c **** 
 385:Drivers/STM32F7xx_HAL_Driver/Src/stm32f7xx_hal_rcc_ex.c ****     /* Configure the CLK48 source */
 386:Drivers/STM32F7xx_HAL_Driver/Src/stm32f7xx_hal_rcc_ex.c ****     __HAL_RCC_CLK48_CONFIG(PeriphClkInit->Clk48ClockSelection);
 319              		.loc 1 386 0
 320 0216 344A     		ldr	r2, .L86
 321 0218 D2F89030 		ldr	r3, [r2, #144]
 322 021c 23F00063 		bic	r3, r3, #134217728
 323 0220 E16F     		ldr	r1, [r4, #124]
 324 0222 0B43     		orrs	r3, r3, r1
 325 0224 C2F89030 		str	r3, [r2, #144]
 387:Drivers/STM32F7xx_HAL_Driver/Src/stm32f7xx_hal_rcc_ex.c **** 
 388:Drivers/STM32F7xx_HAL_Driver/Src/stm32f7xx_hal_rcc_ex.c ****     /* Enable the PLLSAI when it's used as clock source for CK48 */
 389:Drivers/STM32F7xx_HAL_Driver/Src/stm32f7xx_hal_rcc_ex.c ****     if(PeriphClkInit->Clk48ClockSelection == RCC_CLK48SOURCE_PLLSAIP)
 326              		.loc 1 389 0
 327 0228 E36F     		ldr	r3, [r4, #124]
 328 022a B3F1006F 		cmp	r3, #134217728
 329 022e 00F0A780 		beq	.L77
 330              	.LVL13:
 331              	.L31:
 390:Drivers/STM32F7xx_HAL_Driver/Src/stm32f7xx_hal_rcc_ex.c ****     {
 391:Drivers/STM32F7xx_HAL_Driver/Src/stm32f7xx_hal_rcc_ex.c ****       pllsaiused = 1;
 392:Drivers/STM32F7xx_HAL_Driver/Src/stm32f7xx_hal_rcc_ex.c ****     }
 393:Drivers/STM32F7xx_HAL_Driver/Src/stm32f7xx_hal_rcc_ex.c ****   }
 394:Drivers/STM32F7xx_HAL_Driver/Src/stm32f7xx_hal_rcc_ex.c **** 
 395:Drivers/STM32F7xx_HAL_Driver/Src/stm32f7xx_hal_rcc_ex.c ****   /*-------------------------------------- LTDC Configuration -----------------------------------*/
 396:Drivers/STM32F7xx_HAL_Driver/Src/stm32f7xx_hal_rcc_ex.c **** #if defined(STM32F746xx) || defined(STM32F756xx) || defined (STM32F767xx) || defined (STM32F769xx) 
 397:Drivers/STM32F7xx_HAL_Driver/Src/stm32f7xx_hal_rcc_ex.c ****   if(((PeriphClkInit->PeriphClockSelection) & RCC_PERIPHCLK_LTDC) == RCC_PERIPHCLK_LTDC)
 332              		.loc 1 397 0
 333 0232 2368     		ldr	r3, [r4]
 334 0234 13F0080F 		tst	r3, #8
 335 0238 00D0     		beq	.L32
 398:Drivers/STM32F7xx_HAL_Driver/Src/stm32f7xx_hal_rcc_ex.c ****   {
 399:Drivers/STM32F7xx_HAL_Driver/Src/stm32f7xx_hal_rcc_ex.c ****     pllsaiused = 1;
 336              		.loc 1 399 0
 337 023a 0125     		movs	r5, #1
 338              	.LVL14:
ARM GAS  /tmp/cciW4iGq.s 			page 14


 339              	.L32:
 400:Drivers/STM32F7xx_HAL_Driver/Src/stm32f7xx_hal_rcc_ex.c ****   }
 401:Drivers/STM32F7xx_HAL_Driver/Src/stm32f7xx_hal_rcc_ex.c **** #endif /* STM32F746xx || STM32F756xx || STM32F767xx || STM32F769xx || STM32F777xx || STM32F779xx ||
 402:Drivers/STM32F7xx_HAL_Driver/Src/stm32f7xx_hal_rcc_ex.c **** 
 403:Drivers/STM32F7xx_HAL_Driver/Src/stm32f7xx_hal_rcc_ex.c ****   /*-------------------------------------- LPTIM1 Configuration -----------------------------------
 404:Drivers/STM32F7xx_HAL_Driver/Src/stm32f7xx_hal_rcc_ex.c ****   if(((PeriphClkInit->PeriphClockSelection) & RCC_PERIPHCLK_LPTIM1) == RCC_PERIPHCLK_LPTIM1)
 340              		.loc 1 404 0
 341 023c 13F4802F 		tst	r3, #262144
 342 0240 08D0     		beq	.L33
 405:Drivers/STM32F7xx_HAL_Driver/Src/stm32f7xx_hal_rcc_ex.c ****   {
 406:Drivers/STM32F7xx_HAL_Driver/Src/stm32f7xx_hal_rcc_ex.c ****     /* Check the parameters */
 407:Drivers/STM32F7xx_HAL_Driver/Src/stm32f7xx_hal_rcc_ex.c ****     assert_param(IS_RCC_LPTIM1CLK(PeriphClkInit->Lptim1ClockSelection));
 408:Drivers/STM32F7xx_HAL_Driver/Src/stm32f7xx_hal_rcc_ex.c **** 
 409:Drivers/STM32F7xx_HAL_Driver/Src/stm32f7xx_hal_rcc_ex.c ****     /* Configure the LTPIM1 clock source */
 410:Drivers/STM32F7xx_HAL_Driver/Src/stm32f7xx_hal_rcc_ex.c ****     __HAL_RCC_LPTIM1_CONFIG(PeriphClkInit->Lptim1ClockSelection);
 343              		.loc 1 410 0
 344 0242 294A     		ldr	r2, .L86
 345 0244 D2F89030 		ldr	r3, [r2, #144]
 346 0248 23F04073 		bic	r3, r3, #50331648
 347 024c 616F     		ldr	r1, [r4, #116]
 348 024e 0B43     		orrs	r3, r3, r1
 349 0250 C2F89030 		str	r3, [r2, #144]
 350              	.L33:
 411:Drivers/STM32F7xx_HAL_Driver/Src/stm32f7xx_hal_rcc_ex.c ****    }
 412:Drivers/STM32F7xx_HAL_Driver/Src/stm32f7xx_hal_rcc_ex.c **** 
 413:Drivers/STM32F7xx_HAL_Driver/Src/stm32f7xx_hal_rcc_ex.c ****   /*------------------------------------- SDMMC1 Configuration ------------------------------------
 414:Drivers/STM32F7xx_HAL_Driver/Src/stm32f7xx_hal_rcc_ex.c ****   if(((PeriphClkInit->PeriphClockSelection) & RCC_PERIPHCLK_SDMMC1) == RCC_PERIPHCLK_SDMMC1)
 351              		.loc 1 414 0
 352 0254 2368     		ldr	r3, [r4]
 353 0256 13F4000F 		tst	r3, #8388608
 354 025a 09D0     		beq	.L34
 415:Drivers/STM32F7xx_HAL_Driver/Src/stm32f7xx_hal_rcc_ex.c ****   {
 416:Drivers/STM32F7xx_HAL_Driver/Src/stm32f7xx_hal_rcc_ex.c ****     /* Check the parameters */
 417:Drivers/STM32F7xx_HAL_Driver/Src/stm32f7xx_hal_rcc_ex.c ****     assert_param(IS_RCC_SDMMC1CLKSOURCE(PeriphClkInit->Sdmmc1ClockSelection));
 418:Drivers/STM32F7xx_HAL_Driver/Src/stm32f7xx_hal_rcc_ex.c **** 
 419:Drivers/STM32F7xx_HAL_Driver/Src/stm32f7xx_hal_rcc_ex.c ****     /* Configure the SDMMC1 clock source */
 420:Drivers/STM32F7xx_HAL_Driver/Src/stm32f7xx_hal_rcc_ex.c ****     __HAL_RCC_SDMMC1_CONFIG(PeriphClkInit->Sdmmc1ClockSelection);
 355              		.loc 1 420 0
 356 025c 224A     		ldr	r2, .L86
 357 025e D2F89030 		ldr	r3, [r2, #144]
 358 0262 23F08053 		bic	r3, r3, #268435456
 359 0266 D4F88010 		ldr	r1, [r4, #128]
 360 026a 0B43     		orrs	r3, r3, r1
 361 026c C2F89030 		str	r3, [r2, #144]
 362              	.L34:
 421:Drivers/STM32F7xx_HAL_Driver/Src/stm32f7xx_hal_rcc_ex.c ****   }
 422:Drivers/STM32F7xx_HAL_Driver/Src/stm32f7xx_hal_rcc_ex.c **** 
 423:Drivers/STM32F7xx_HAL_Driver/Src/stm32f7xx_hal_rcc_ex.c **** #if defined (STM32F765xx) || defined (STM32F767xx) || defined (STM32F769xx) || defined (STM32F777xx
 424:Drivers/STM32F7xx_HAL_Driver/Src/stm32f7xx_hal_rcc_ex.c ****   /*------------------------------------- SDMMC2 Configuration ------------------------------------
 425:Drivers/STM32F7xx_HAL_Driver/Src/stm32f7xx_hal_rcc_ex.c ****   if(((PeriphClkInit->PeriphClockSelection) & RCC_PERIPHCLK_SDMMC2) == RCC_PERIPHCLK_SDMMC2)
 426:Drivers/STM32F7xx_HAL_Driver/Src/stm32f7xx_hal_rcc_ex.c ****   {
 427:Drivers/STM32F7xx_HAL_Driver/Src/stm32f7xx_hal_rcc_ex.c ****     /* Check the parameters */
 428:Drivers/STM32F7xx_HAL_Driver/Src/stm32f7xx_hal_rcc_ex.c ****     assert_param(IS_RCC_SDMMC2CLKSOURCE(PeriphClkInit->Sdmmc2ClockSelection));
 429:Drivers/STM32F7xx_HAL_Driver/Src/stm32f7xx_hal_rcc_ex.c **** 
 430:Drivers/STM32F7xx_HAL_Driver/Src/stm32f7xx_hal_rcc_ex.c ****     /* Configure the SDMMC2 clock source */
 431:Drivers/STM32F7xx_HAL_Driver/Src/stm32f7xx_hal_rcc_ex.c ****     __HAL_RCC_SDMMC2_CONFIG(PeriphClkInit->Sdmmc2ClockSelection);
 432:Drivers/STM32F7xx_HAL_Driver/Src/stm32f7xx_hal_rcc_ex.c ****   }
ARM GAS  /tmp/cciW4iGq.s 			page 15


 433:Drivers/STM32F7xx_HAL_Driver/Src/stm32f7xx_hal_rcc_ex.c **** 
 434:Drivers/STM32F7xx_HAL_Driver/Src/stm32f7xx_hal_rcc_ex.c ****   /*------------------------------------- DFSDM1 Configuration ------------------------------------
 435:Drivers/STM32F7xx_HAL_Driver/Src/stm32f7xx_hal_rcc_ex.c ****   if(((PeriphClkInit->PeriphClockSelection) & RCC_PERIPHCLK_DFSDM1) == RCC_PERIPHCLK_DFSDM1)
 436:Drivers/STM32F7xx_HAL_Driver/Src/stm32f7xx_hal_rcc_ex.c ****   {
 437:Drivers/STM32F7xx_HAL_Driver/Src/stm32f7xx_hal_rcc_ex.c ****     /* Check the parameters */
 438:Drivers/STM32F7xx_HAL_Driver/Src/stm32f7xx_hal_rcc_ex.c ****     assert_param(IS_RCC_DFSDM1CLKSOURCE(PeriphClkInit->Dfsdm1ClockSelection));
 439:Drivers/STM32F7xx_HAL_Driver/Src/stm32f7xx_hal_rcc_ex.c **** 
 440:Drivers/STM32F7xx_HAL_Driver/Src/stm32f7xx_hal_rcc_ex.c ****     /* Configure the DFSDM1 interface clock source */
 441:Drivers/STM32F7xx_HAL_Driver/Src/stm32f7xx_hal_rcc_ex.c ****     __HAL_RCC_DFSDM1_CONFIG(PeriphClkInit->Dfsdm1ClockSelection);
 442:Drivers/STM32F7xx_HAL_Driver/Src/stm32f7xx_hal_rcc_ex.c ****   }
 443:Drivers/STM32F7xx_HAL_Driver/Src/stm32f7xx_hal_rcc_ex.c **** 
 444:Drivers/STM32F7xx_HAL_Driver/Src/stm32f7xx_hal_rcc_ex.c ****   /*------------------------------------- DFSDM AUDIO Configuration -------------------------------
 445:Drivers/STM32F7xx_HAL_Driver/Src/stm32f7xx_hal_rcc_ex.c ****   if(((PeriphClkInit->PeriphClockSelection) & RCC_PERIPHCLK_DFSDM1_AUDIO) == RCC_PERIPHCLK_DFSDM1_A
 446:Drivers/STM32F7xx_HAL_Driver/Src/stm32f7xx_hal_rcc_ex.c ****   {
 447:Drivers/STM32F7xx_HAL_Driver/Src/stm32f7xx_hal_rcc_ex.c ****     /* Check the parameters */
 448:Drivers/STM32F7xx_HAL_Driver/Src/stm32f7xx_hal_rcc_ex.c ****     assert_param(IS_RCC_DFSDM1AUDIOCLKSOURCE(PeriphClkInit->Dfsdm1AudioClockSelection));
 449:Drivers/STM32F7xx_HAL_Driver/Src/stm32f7xx_hal_rcc_ex.c **** 
 450:Drivers/STM32F7xx_HAL_Driver/Src/stm32f7xx_hal_rcc_ex.c ****     /* Configure the DFSDM interface clock source */
 451:Drivers/STM32F7xx_HAL_Driver/Src/stm32f7xx_hal_rcc_ex.c ****     __HAL_RCC_DFSDM1AUDIO_CONFIG(PeriphClkInit->Dfsdm1AudioClockSelection);
 452:Drivers/STM32F7xx_HAL_Driver/Src/stm32f7xx_hal_rcc_ex.c ****   }
 453:Drivers/STM32F7xx_HAL_Driver/Src/stm32f7xx_hal_rcc_ex.c **** #endif /* STM32F767xx || STM32F769xx || STM32F777xx || STM32F779xx */
 454:Drivers/STM32F7xx_HAL_Driver/Src/stm32f7xx_hal_rcc_ex.c **** 
 455:Drivers/STM32F7xx_HAL_Driver/Src/stm32f7xx_hal_rcc_ex.c ****   /*-------------------------------------- PLLI2S Configuration ---------------------------------*/
 456:Drivers/STM32F7xx_HAL_Driver/Src/stm32f7xx_hal_rcc_ex.c ****   /* PLLI2S is configured when a peripheral will use it as source clock : SAI1, SAI2, I2S or SPDIF-
 457:Drivers/STM32F7xx_HAL_Driver/Src/stm32f7xx_hal_rcc_ex.c ****   if((plli2sused == 1) || ((PeriphClkInit->PeriphClockSelection & RCC_PERIPHCLK_PLLI2S) == RCC_PERI
 363              		.loc 1 457 0
 364 0270 26B9     		cbnz	r6, .L35
 365              		.loc 1 457 0 is_stmt 0 discriminator 1
 366 0272 2368     		ldr	r3, [r4]
 367 0274 13F0007F 		tst	r3, #33554432
 368 0278 00F00281 		beq	.L36
 369              	.L35:
 458:Drivers/STM32F7xx_HAL_Driver/Src/stm32f7xx_hal_rcc_ex.c ****   {
 459:Drivers/STM32F7xx_HAL_Driver/Src/stm32f7xx_hal_rcc_ex.c ****     /* Disable the PLLI2S */
 460:Drivers/STM32F7xx_HAL_Driver/Src/stm32f7xx_hal_rcc_ex.c ****     __HAL_RCC_PLLI2S_DISABLE();
 370              		.loc 1 460 0 is_stmt 1
 371 027c 1A4A     		ldr	r2, .L86
 372 027e 1368     		ldr	r3, [r2]
 373 0280 23F08063 		bic	r3, r3, #67108864
 374 0284 1360     		str	r3, [r2]
 461:Drivers/STM32F7xx_HAL_Driver/Src/stm32f7xx_hal_rcc_ex.c **** 
 462:Drivers/STM32F7xx_HAL_Driver/Src/stm32f7xx_hal_rcc_ex.c ****     /* Get Start Tick*/
 463:Drivers/STM32F7xx_HAL_Driver/Src/stm32f7xx_hal_rcc_ex.c ****     tickstart = HAL_GetTick();
 375              		.loc 1 463 0
 376 0286 FFF7FEFF 		bl	HAL_GetTick
 377              	.LVL15:
 378 028a 0646     		mov	r6, r0
 379              	.LVL16:
 380              	.L37:
 464:Drivers/STM32F7xx_HAL_Driver/Src/stm32f7xx_hal_rcc_ex.c **** 
 465:Drivers/STM32F7xx_HAL_Driver/Src/stm32f7xx_hal_rcc_ex.c ****     /* Wait till PLLI2S is disabled */
 466:Drivers/STM32F7xx_HAL_Driver/Src/stm32f7xx_hal_rcc_ex.c ****     while(__HAL_RCC_GET_FLAG(RCC_FLAG_PLLI2SRDY)  != RESET)
 381              		.loc 1 466 0
 382 028c 164B     		ldr	r3, .L86
 383 028e 1B68     		ldr	r3, [r3]
 384 0290 13F0006F 		tst	r3, #134217728
 385 0294 76D0     		beq	.L78
ARM GAS  /tmp/cciW4iGq.s 			page 16


 467:Drivers/STM32F7xx_HAL_Driver/Src/stm32f7xx_hal_rcc_ex.c ****     {
 468:Drivers/STM32F7xx_HAL_Driver/Src/stm32f7xx_hal_rcc_ex.c ****       if((HAL_GetTick() - tickstart) > PLLI2S_TIMEOUT_VALUE)
 386              		.loc 1 468 0
 387 0296 FFF7FEFF 		bl	HAL_GetTick
 388              	.LVL17:
 389 029a 801B     		subs	r0, r0, r6
 390 029c 6428     		cmp	r0, #100
 391 029e F5D9     		bls	.L37
 469:Drivers/STM32F7xx_HAL_Driver/Src/stm32f7xx_hal_rcc_ex.c ****       {
 470:Drivers/STM32F7xx_HAL_Driver/Src/stm32f7xx_hal_rcc_ex.c ****         /* return in case of Timeout detected */
 471:Drivers/STM32F7xx_HAL_Driver/Src/stm32f7xx_hal_rcc_ex.c ****         return HAL_TIMEOUT;
 392              		.loc 1 471 0
 393 02a0 0320     		movs	r0, #3
 394 02a2 EFE0     		b	.L10
 395              	.LVL18:
 396              	.L60:
 150:Drivers/STM32F7xx_HAL_Driver/Src/stm32f7xx_hal_rcc_ex.c ****     }
 397              		.loc 1 150 0
 398 02a4 0125     		movs	r5, #1
 399 02a6 DBE6     		b	.L3
 400              	.LVL19:
 401              	.L75:
 166:Drivers/STM32F7xx_HAL_Driver/Src/stm32f7xx_hal_rcc_ex.c ****     }
 402              		.loc 1 166 0
 403 02a8 0126     		movs	r6, #1
 404              	.LVL20:
 405 02aa EBE6     		b	.L6
 406              	.LVL21:
 407              	.L76:
 408              	.LBB2:
 188:Drivers/STM32F7xx_HAL_Driver/Src/stm32f7xx_hal_rcc_ex.c **** 
 409              		.loc 1 188 0
 410 02ac 0E4B     		ldr	r3, .L86
 411 02ae 1A6C     		ldr	r2, [r3, #64]
 412 02b0 42F08052 		orr	r2, r2, #268435456
 413 02b4 1A64     		str	r2, [r3, #64]
 414 02b6 1B6C     		ldr	r3, [r3, #64]
 415 02b8 03F08053 		and	r3, r3, #268435456
 416 02bc 0193     		str	r3, [sp, #4]
 417 02be 019B     		ldr	r3, [sp, #4]
 418              	.LBE2:
 191:Drivers/STM32F7xx_HAL_Driver/Src/stm32f7xx_hal_rcc_ex.c **** 
 419              		.loc 1 191 0
 420 02c0 0A4A     		ldr	r2, .L86+4
 421 02c2 1368     		ldr	r3, [r2]
 422 02c4 43F48073 		orr	r3, r3, #256
 423 02c8 1360     		str	r3, [r2]
 194:Drivers/STM32F7xx_HAL_Driver/Src/stm32f7xx_hal_rcc_ex.c **** 
 424              		.loc 1 194 0
 425 02ca FFF7FEFF 		bl	HAL_GetTick
 426              	.LVL22:
 427 02ce 0746     		mov	r7, r0
 428              	.LVL23:
 429              	.L9:
 197:Drivers/STM32F7xx_HAL_Driver/Src/stm32f7xx_hal_rcc_ex.c ****     {
 430              		.loc 1 197 0
 431 02d0 064B     		ldr	r3, .L86+4
ARM GAS  /tmp/cciW4iGq.s 			page 17


 432 02d2 1B68     		ldr	r3, [r3]
 433 02d4 13F4807F 		tst	r3, #256
 434 02d8 0AD1     		bne	.L79
 199:Drivers/STM32F7xx_HAL_Driver/Src/stm32f7xx_hal_rcc_ex.c ****       {
 435              		.loc 1 199 0
 436 02da FFF7FEFF 		bl	HAL_GetTick
 437              	.LVL24:
 438 02de C01B     		subs	r0, r0, r7
 439 02e0 6428     		cmp	r0, #100
 440 02e2 F5D9     		bls	.L9
 201:Drivers/STM32F7xx_HAL_Driver/Src/stm32f7xx_hal_rcc_ex.c ****       }
 441              		.loc 1 201 0
 442 02e4 0320     		movs	r0, #3
 443 02e6 CDE0     		b	.L10
 444              	.L87:
 445              		.align	2
 446              	.L86:
 447 02e8 00380240 		.word	1073887232
 448 02ec 00700040 		.word	1073770496
 449              	.L79:
 206:Drivers/STM32F7xx_HAL_Driver/Src/stm32f7xx_hal_rcc_ex.c **** 
 450              		.loc 1 206 0
 451 02f0 AA4B     		ldr	r3, .L88
 452 02f2 1B6F     		ldr	r3, [r3, #112]
 453              	.LVL25:
 208:Drivers/STM32F7xx_HAL_Driver/Src/stm32f7xx_hal_rcc_ex.c ****     {
 454              		.loc 1 208 0
 455 02f4 13F44073 		ands	r3, r3, #768
 456              	.LVL26:
 457 02f8 15D0     		beq	.L12
 208:Drivers/STM32F7xx_HAL_Driver/Src/stm32f7xx_hal_rcc_ex.c ****     {
 458              		.loc 1 208 0 is_stmt 0 discriminator 1
 459 02fa 226B     		ldr	r2, [r4, #48]
 460 02fc 02F44072 		and	r2, r2, #768
 461 0300 9A42     		cmp	r2, r3
 462 0302 10D0     		beq	.L12
 211:Drivers/STM32F7xx_HAL_Driver/Src/stm32f7xx_hal_rcc_ex.c **** 
 463              		.loc 1 211 0 is_stmt 1
 464 0304 A54B     		ldr	r3, .L88
 465              	.LVL27:
 466 0306 1A6F     		ldr	r2, [r3, #112]
 467 0308 22F44072 		bic	r2, r2, #768
 468              	.LVL28:
 214:Drivers/STM32F7xx_HAL_Driver/Src/stm32f7xx_hal_rcc_ex.c ****       __HAL_RCC_BACKUPRESET_RELEASE();
 469              		.loc 1 214 0
 470 030c 196F     		ldr	r1, [r3, #112]
 471 030e 41F48031 		orr	r1, r1, #65536
 472 0312 1967     		str	r1, [r3, #112]
 215:Drivers/STM32F7xx_HAL_Driver/Src/stm32f7xx_hal_rcc_ex.c **** 
 473              		.loc 1 215 0
 474 0314 196F     		ldr	r1, [r3, #112]
 475 0316 21F48031 		bic	r1, r1, #65536
 476 031a 1967     		str	r1, [r3, #112]
 218:Drivers/STM32F7xx_HAL_Driver/Src/stm32f7xx_hal_rcc_ex.c **** 
 477              		.loc 1 218 0
 478 031c 1A67     		str	r2, [r3, #112]
 221:Drivers/STM32F7xx_HAL_Driver/Src/stm32f7xx_hal_rcc_ex.c ****       {
ARM GAS  /tmp/cciW4iGq.s 			page 18


 479              		.loc 1 221 0
 480 031e 1B6F     		ldr	r3, [r3, #112]
 481 0320 13F0010F 		tst	r3, #1
 482 0324 12D1     		bne	.L80
 483              	.LVL29:
 484              	.L12:
 236:Drivers/STM32F7xx_HAL_Driver/Src/stm32f7xx_hal_rcc_ex.c ****   }
 485              		.loc 1 236 0
 486 0326 236B     		ldr	r3, [r4, #48]
 487 0328 03F44072 		and	r2, r3, #768
 488 032c B2F5407F 		cmp	r2, #768
 489 0330 1DD0     		beq	.L81
 236:Drivers/STM32F7xx_HAL_Driver/Src/stm32f7xx_hal_rcc_ex.c ****   }
 490              		.loc 1 236 0 is_stmt 0 discriminator 2
 491 0332 9A4A     		ldr	r2, .L88
 492 0334 9368     		ldr	r3, [r2, #8]
 493 0336 23F4F813 		bic	r3, r3, #2031616
 494 033a 9360     		str	r3, [r2, #8]
 495              	.L16:
 236:Drivers/STM32F7xx_HAL_Driver/Src/stm32f7xx_hal_rcc_ex.c ****   }
 496              		.loc 1 236 0 discriminator 4
 497 033c 9749     		ldr	r1, .L88
 498 033e 0B6F     		ldr	r3, [r1, #112]
 499 0340 226B     		ldr	r2, [r4, #48]
 500 0342 C2F30B02 		ubfx	r2, r2, #0, #12
 501 0346 1343     		orrs	r3, r3, r2
 502 0348 0B67     		str	r3, [r1, #112]
 503 034a A6E6     		b	.L8
 504              	.LVL30:
 505              	.L80:
 224:Drivers/STM32F7xx_HAL_Driver/Src/stm32f7xx_hal_rcc_ex.c **** 
 506              		.loc 1 224 0 is_stmt 1
 507 034c FFF7FEFF 		bl	HAL_GetTick
 508              	.LVL31:
 509 0350 0746     		mov	r7, r0
 510              	.LVL32:
 511              	.L13:
 227:Drivers/STM32F7xx_HAL_Driver/Src/stm32f7xx_hal_rcc_ex.c ****         {
 512              		.loc 1 227 0
 513 0352 924B     		ldr	r3, .L88
 514 0354 1B6F     		ldr	r3, [r3, #112]
 515 0356 13F0020F 		tst	r3, #2
 516 035a E4D1     		bne	.L12
 229:Drivers/STM32F7xx_HAL_Driver/Src/stm32f7xx_hal_rcc_ex.c ****           {
 517              		.loc 1 229 0
 518 035c FFF7FEFF 		bl	HAL_GetTick
 519              	.LVL33:
 520 0360 C01B     		subs	r0, r0, r7
 521 0362 41F28833 		movw	r3, #5000
 522 0366 9842     		cmp	r0, r3
 523 0368 F3D9     		bls	.L13
 231:Drivers/STM32F7xx_HAL_Driver/Src/stm32f7xx_hal_rcc_ex.c ****           }
 524              		.loc 1 231 0
 525 036a 0320     		movs	r0, #3
 526 036c 8AE0     		b	.L10
 527              	.L81:
 236:Drivers/STM32F7xx_HAL_Driver/Src/stm32f7xx_hal_rcc_ex.c ****   }
ARM GAS  /tmp/cciW4iGq.s 			page 19


 528              		.loc 1 236 0 discriminator 1
 529 036e 8B48     		ldr	r0, .L88
 530 0370 8268     		ldr	r2, [r0, #8]
 531 0372 22F4F812 		bic	r2, r2, #2031616
 532 0376 8A49     		ldr	r1, .L88+4
 533 0378 1940     		ands	r1, r1, r3
 534 037a 0A43     		orrs	r2, r2, r1
 535 037c 8260     		str	r2, [r0, #8]
 536 037e DDE7     		b	.L16
 537              	.LVL34:
 538              	.L77:
 391:Drivers/STM32F7xx_HAL_Driver/Src/stm32f7xx_hal_rcc_ex.c ****     }
 539              		.loc 1 391 0
 540 0380 0125     		movs	r5, #1
 541              	.LVL35:
 542 0382 56E7     		b	.L31
 543              	.LVL36:
 544              	.L78:
 472:Drivers/STM32F7xx_HAL_Driver/Src/stm32f7xx_hal_rcc_ex.c ****       }
 473:Drivers/STM32F7xx_HAL_Driver/Src/stm32f7xx_hal_rcc_ex.c ****     }
 474:Drivers/STM32F7xx_HAL_Driver/Src/stm32f7xx_hal_rcc_ex.c **** 
 475:Drivers/STM32F7xx_HAL_Driver/Src/stm32f7xx_hal_rcc_ex.c ****     /* check for common PLLI2S Parameters */
 476:Drivers/STM32F7xx_HAL_Driver/Src/stm32f7xx_hal_rcc_ex.c ****     assert_param(IS_RCC_PLLI2SN_VALUE(PeriphClkInit->PLLI2S.PLLI2SN));
 477:Drivers/STM32F7xx_HAL_Driver/Src/stm32f7xx_hal_rcc_ex.c **** 
 478:Drivers/STM32F7xx_HAL_Driver/Src/stm32f7xx_hal_rcc_ex.c ****     /*----------------- In Case of PLLI2S is selected as source clock for I2S -------------------*/
 479:Drivers/STM32F7xx_HAL_Driver/Src/stm32f7xx_hal_rcc_ex.c ****     if(((((PeriphClkInit->PeriphClockSelection) & RCC_PERIPHCLK_I2S) == RCC_PERIPHCLK_I2S) && (Peri
 545              		.loc 1 479 0
 546 0384 2368     		ldr	r3, [r4]
 547 0386 13F0010F 		tst	r3, #1
 548 038a 13D0     		beq	.L39
 549              		.loc 1 479 0 is_stmt 0 discriminator 1
 550 038c 636B     		ldr	r3, [r4, #52]
 551 038e 8BB9     		cbnz	r3, .L39
 480:Drivers/STM32F7xx_HAL_Driver/Src/stm32f7xx_hal_rcc_ex.c ****     {
 481:Drivers/STM32F7xx_HAL_Driver/Src/stm32f7xx_hal_rcc_ex.c ****       /* check for Parameters */
 482:Drivers/STM32F7xx_HAL_Driver/Src/stm32f7xx_hal_rcc_ex.c ****       assert_param(IS_RCC_PLLI2SR_VALUE(PeriphClkInit->PLLI2S.PLLI2SR));
 483:Drivers/STM32F7xx_HAL_Driver/Src/stm32f7xx_hal_rcc_ex.c **** 
 484:Drivers/STM32F7xx_HAL_Driver/Src/stm32f7xx_hal_rcc_ex.c ****       /* Read PLLI2SP and PLLI2SQ value from PLLI2SCFGR register (this value is not needed for I2S 
 485:Drivers/STM32F7xx_HAL_Driver/Src/stm32f7xx_hal_rcc_ex.c ****       tmpreg0 = ((RCC->PLLI2SCFGR & RCC_PLLI2SCFGR_PLLI2SP) >> RCC_PLLI2SCFGR_PLLI2SP_Pos);
 552              		.loc 1 485 0 is_stmt 1
 553 0390 824A     		ldr	r2, .L88
 554 0392 D2F88430 		ldr	r3, [r2, #132]
 555              	.LVL37:
 486:Drivers/STM32F7xx_HAL_Driver/Src/stm32f7xx_hal_rcc_ex.c ****       tmpreg1 = ((RCC->PLLI2SCFGR & RCC_PLLI2SCFGR_PLLI2SQ) >> RCC_PLLI2SCFGR_PLLI2SQ_Pos);
 556              		.loc 1 486 0
 557 0396 D2F88410 		ldr	r1, [r2, #132]
 558              	.LVL38:
 487:Drivers/STM32F7xx_HAL_Driver/Src/stm32f7xx_hal_rcc_ex.c ****       /* Configure the PLLI2S division factors */
 488:Drivers/STM32F7xx_HAL_Driver/Src/stm32f7xx_hal_rcc_ex.c ****       /* PLLI2S_VCO = f(VCO clock) = f(PLLI2S clock input) x (PLLI2SN/PLLM) */
 489:Drivers/STM32F7xx_HAL_Driver/Src/stm32f7xx_hal_rcc_ex.c ****       /* I2SCLK = f(PLLI2S clock output) = f(VCO clock) / PLLI2SR */
 490:Drivers/STM32F7xx_HAL_Driver/Src/stm32f7xx_hal_rcc_ex.c ****       __HAL_RCC_PLLI2S_CONFIG(PeriphClkInit->PLLI2S.PLLI2SN , tmpreg0, tmpreg1, PeriphClkInit->PLLI
 559              		.loc 1 490 0
 560 039a 6068     		ldr	r0, [r4, #4]
 561 039c 03F44033 		and	r3, r3, #196608
 562              	.LVL39:
 563 03a0 43EA8013 		orr	r3, r3, r0, lsl #6
 564 03a4 01F07061 		and	r1, r1, #251658240
ARM GAS  /tmp/cciW4iGq.s 			page 20


 565              	.LVL40:
 566 03a8 0B43     		orrs	r3, r3, r1
 567 03aa A168     		ldr	r1, [r4, #8]
 568 03ac 43EA0173 		orr	r3, r3, r1, lsl #28
 569 03b0 C2F88430 		str	r3, [r2, #132]
 570              	.L39:
 491:Drivers/STM32F7xx_HAL_Driver/Src/stm32f7xx_hal_rcc_ex.c ****     }
 492:Drivers/STM32F7xx_HAL_Driver/Src/stm32f7xx_hal_rcc_ex.c **** 
 493:Drivers/STM32F7xx_HAL_Driver/Src/stm32f7xx_hal_rcc_ex.c ****     /*----------------- In Case of PLLI2S is selected as source clock for SAI -------------------*/
 494:Drivers/STM32F7xx_HAL_Driver/Src/stm32f7xx_hal_rcc_ex.c ****     if(((((PeriphClkInit->PeriphClockSelection) & RCC_PERIPHCLK_SAI1) == RCC_PERIPHCLK_SAI1) && (Pe
 571              		.loc 1 494 0
 572 03b4 2368     		ldr	r3, [r4]
 573 03b6 13F4002F 		tst	r3, #524288
 574 03ba 03D0     		beq	.L40
 575              		.loc 1 494 0 is_stmt 0 discriminator 1
 576 03bc E26B     		ldr	r2, [r4, #60]
 577 03be B2F5801F 		cmp	r2, #1048576
 578 03c2 06D0     		beq	.L41
 579              	.L40:
 580              		.loc 1 494 0 discriminator 3
 581 03c4 13F4801F 		tst	r3, #1048576
 582 03c8 1ED0     		beq	.L42
 495:Drivers/STM32F7xx_HAL_Driver/Src/stm32f7xx_hal_rcc_ex.c ****        ((((PeriphClkInit->PeriphClockSelection) & RCC_PERIPHCLK_SAI2) == RCC_PERIPHCLK_SAI2) && (Pe
 583              		.loc 1 495 0 is_stmt 1
 584 03ca 236C     		ldr	r3, [r4, #64]
 585 03cc B3F5800F 		cmp	r3, #4194304
 586 03d0 1AD1     		bne	.L42
 587              	.L41:
 496:Drivers/STM32F7xx_HAL_Driver/Src/stm32f7xx_hal_rcc_ex.c ****     {
 497:Drivers/STM32F7xx_HAL_Driver/Src/stm32f7xx_hal_rcc_ex.c ****       /* Check for PLLI2S Parameters */
 498:Drivers/STM32F7xx_HAL_Driver/Src/stm32f7xx_hal_rcc_ex.c ****       assert_param(IS_RCC_PLLI2SQ_VALUE(PeriphClkInit->PLLI2S.PLLI2SQ));
 499:Drivers/STM32F7xx_HAL_Driver/Src/stm32f7xx_hal_rcc_ex.c ****       /* Check for PLLI2S/DIVQ parameters */
 500:Drivers/STM32F7xx_HAL_Driver/Src/stm32f7xx_hal_rcc_ex.c ****       assert_param(IS_RCC_PLLI2S_DIVQ_VALUE(PeriphClkInit->PLLI2SDivQ));
 501:Drivers/STM32F7xx_HAL_Driver/Src/stm32f7xx_hal_rcc_ex.c **** 
 502:Drivers/STM32F7xx_HAL_Driver/Src/stm32f7xx_hal_rcc_ex.c ****       /* Read PLLI2SP and PLLI2SR values from PLLI2SCFGR register (this value is not needed for SAI
 503:Drivers/STM32F7xx_HAL_Driver/Src/stm32f7xx_hal_rcc_ex.c ****       tmpreg0 = ((RCC->PLLI2SCFGR & RCC_PLLI2SCFGR_PLLI2SP) >> RCC_PLLI2SCFGR_PLLI2SP_Pos);
 588              		.loc 1 503 0
 589 03d2 724A     		ldr	r2, .L88
 590 03d4 D2F88430 		ldr	r3, [r2, #132]
 591              	.LVL41:
 504:Drivers/STM32F7xx_HAL_Driver/Src/stm32f7xx_hal_rcc_ex.c ****       tmpreg1 = ((RCC->PLLI2SCFGR & RCC_PLLI2SCFGR_PLLI2SR) >> RCC_PLLI2SCFGR_PLLI2SR_Pos);
 592              		.loc 1 504 0
 593 03d8 D2F88410 		ldr	r1, [r2, #132]
 594              	.LVL42:
 505:Drivers/STM32F7xx_HAL_Driver/Src/stm32f7xx_hal_rcc_ex.c ****       /* Configure the PLLI2S division factors */
 506:Drivers/STM32F7xx_HAL_Driver/Src/stm32f7xx_hal_rcc_ex.c ****       /* PLLI2S_VCO Input  = PLL_SOURCE/PLLM */
 507:Drivers/STM32F7xx_HAL_Driver/Src/stm32f7xx_hal_rcc_ex.c ****       /* PLLI2S_VCO Output = PLLI2S_VCO Input * PLLI2SN */
 508:Drivers/STM32F7xx_HAL_Driver/Src/stm32f7xx_hal_rcc_ex.c ****       /* SAI_CLK(first level) = PLLI2S_VCO Output/PLLI2SQ */
 509:Drivers/STM32F7xx_HAL_Driver/Src/stm32f7xx_hal_rcc_ex.c ****       __HAL_RCC_PLLI2S_CONFIG(PeriphClkInit->PLLI2S.PLLI2SN, tmpreg0, PeriphClkInit->PLLI2S.PLLI2SQ
 595              		.loc 1 509 0
 596 03dc 6068     		ldr	r0, [r4, #4]
 597 03de 03F44033 		and	r3, r3, #196608
 598              	.LVL43:
 599 03e2 43EA8013 		orr	r3, r3, r0, lsl #6
 600 03e6 E068     		ldr	r0, [r4, #12]
 601 03e8 43EA0063 		orr	r3, r3, r0, lsl #24
 602 03ec 01F0E041 		and	r1, r1, #1879048192
ARM GAS  /tmp/cciW4iGq.s 			page 21


 603              	.LVL44:
 604 03f0 0B43     		orrs	r3, r3, r1
 605 03f2 C2F88430 		str	r3, [r2, #132]
 510:Drivers/STM32F7xx_HAL_Driver/Src/stm32f7xx_hal_rcc_ex.c **** 
 511:Drivers/STM32F7xx_HAL_Driver/Src/stm32f7xx_hal_rcc_ex.c ****       /* SAI_CLK_x = SAI_CLK(first level)/PLLI2SDIVQ */
 512:Drivers/STM32F7xx_HAL_Driver/Src/stm32f7xx_hal_rcc_ex.c ****       __HAL_RCC_PLLI2S_PLLSAICLKDIVQ_CONFIG(PeriphClkInit->PLLI2SDivQ);
 606              		.loc 1 512 0
 607 03f6 D2F88C30 		ldr	r3, [r2, #140]
 608 03fa 23F01F03 		bic	r3, r3, #31
 609 03fe 616A     		ldr	r1, [r4, #36]
 610 0400 0139     		subs	r1, r1, #1
 611 0402 0B43     		orrs	r3, r3, r1
 612 0404 C2F88C30 		str	r3, [r2, #140]
 613              	.L42:
 513:Drivers/STM32F7xx_HAL_Driver/Src/stm32f7xx_hal_rcc_ex.c ****     }
 514:Drivers/STM32F7xx_HAL_Driver/Src/stm32f7xx_hal_rcc_ex.c **** 
 515:Drivers/STM32F7xx_HAL_Driver/Src/stm32f7xx_hal_rcc_ex.c ****     /*----------------- In Case of PLLI2S is selected as source clock for SPDIF-RX ----------------
 516:Drivers/STM32F7xx_HAL_Driver/Src/stm32f7xx_hal_rcc_ex.c ****     if(((PeriphClkInit->PeriphClockSelection) & RCC_PERIPHCLK_SPDIFRX) == RCC_PERIPHCLK_SPDIFRX)
 614              		.loc 1 516 0
 615 0408 2368     		ldr	r3, [r4]
 616 040a 13F0807F 		tst	r3, #16777216
 617 040e 11D0     		beq	.L43
 517:Drivers/STM32F7xx_HAL_Driver/Src/stm32f7xx_hal_rcc_ex.c ****     {
 518:Drivers/STM32F7xx_HAL_Driver/Src/stm32f7xx_hal_rcc_ex.c ****       /* check for Parameters */
 519:Drivers/STM32F7xx_HAL_Driver/Src/stm32f7xx_hal_rcc_ex.c ****       assert_param(IS_RCC_PLLI2SP_VALUE(PeriphClkInit->PLLI2S.PLLI2SP));
 520:Drivers/STM32F7xx_HAL_Driver/Src/stm32f7xx_hal_rcc_ex.c **** 
 521:Drivers/STM32F7xx_HAL_Driver/Src/stm32f7xx_hal_rcc_ex.c ****      /* Read PLLI2SR value from PLLI2SCFGR register (this value is not needed for SPDIF-RX configur
 522:Drivers/STM32F7xx_HAL_Driver/Src/stm32f7xx_hal_rcc_ex.c ****       tmpreg0 = ((RCC->PLLI2SCFGR & RCC_PLLI2SCFGR_PLLI2SQ) >> RCC_PLLI2SCFGR_PLLI2SQ_Pos);
 618              		.loc 1 522 0
 619 0410 624A     		ldr	r2, .L88
 620 0412 D2F88400 		ldr	r0, [r2, #132]
 621              	.LVL45:
 523:Drivers/STM32F7xx_HAL_Driver/Src/stm32f7xx_hal_rcc_ex.c ****       tmpreg1 = ((RCC->PLLI2SCFGR & RCC_PLLI2SCFGR_PLLI2SR) >> RCC_PLLI2SCFGR_PLLI2SR_Pos);
 622              		.loc 1 523 0
 623 0416 D2F88410 		ldr	r1, [r2, #132]
 624              	.LVL46:
 524:Drivers/STM32F7xx_HAL_Driver/Src/stm32f7xx_hal_rcc_ex.c ****       /* Configure the PLLI2S division factors */
 525:Drivers/STM32F7xx_HAL_Driver/Src/stm32f7xx_hal_rcc_ex.c ****       /* PLLI2S_VCO = f(VCO clock) = f(PLLI2S clock input) x (PLLI2SN/PLLM) */
 526:Drivers/STM32F7xx_HAL_Driver/Src/stm32f7xx_hal_rcc_ex.c ****       /* SPDIFCLK = f(PLLI2S clock output) = f(VCO clock) / PLLI2SP */
 527:Drivers/STM32F7xx_HAL_Driver/Src/stm32f7xx_hal_rcc_ex.c ****       __HAL_RCC_PLLI2S_CONFIG(PeriphClkInit->PLLI2S.PLLI2SN , PeriphClkInit->PLLI2S.PLLI2SP, tmpreg
 625              		.loc 1 527 0
 626 041a 6668     		ldr	r6, [r4, #4]
 627              	.LVL47:
 628 041c 2369     		ldr	r3, [r4, #16]
 629 041e 1B04     		lsls	r3, r3, #16
 630 0420 43EA8613 		orr	r3, r3, r6, lsl #6
 631 0424 00F07060 		and	r0, r0, #251658240
 632              	.LVL48:
 633 0428 0343     		orrs	r3, r3, r0
 634 042a 01F0E041 		and	r1, r1, #1879048192
 635              	.LVL49:
 636 042e 0B43     		orrs	r3, r3, r1
 637 0430 C2F88430 		str	r3, [r2, #132]
 638              	.L43:
 528:Drivers/STM32F7xx_HAL_Driver/Src/stm32f7xx_hal_rcc_ex.c ****     }
 529:Drivers/STM32F7xx_HAL_Driver/Src/stm32f7xx_hal_rcc_ex.c **** 
 530:Drivers/STM32F7xx_HAL_Driver/Src/stm32f7xx_hal_rcc_ex.c ****     /*----------------- In Case of PLLI2S is just selected  -----------------*/
ARM GAS  /tmp/cciW4iGq.s 			page 22


 531:Drivers/STM32F7xx_HAL_Driver/Src/stm32f7xx_hal_rcc_ex.c ****     if((PeriphClkInit->PeriphClockSelection & RCC_PERIPHCLK_PLLI2S) == RCC_PERIPHCLK_PLLI2S)
 639              		.loc 1 531 0
 640 0434 2368     		ldr	r3, [r4]
 641 0436 13F0007F 		tst	r3, #33554432
 642 043a 0DD0     		beq	.L44
 532:Drivers/STM32F7xx_HAL_Driver/Src/stm32f7xx_hal_rcc_ex.c ****     {
 533:Drivers/STM32F7xx_HAL_Driver/Src/stm32f7xx_hal_rcc_ex.c ****       /* Check for Parameters */
 534:Drivers/STM32F7xx_HAL_Driver/Src/stm32f7xx_hal_rcc_ex.c ****       assert_param(IS_RCC_PLLI2SP_VALUE(PeriphClkInit->PLLI2S.PLLI2SP));
 535:Drivers/STM32F7xx_HAL_Driver/Src/stm32f7xx_hal_rcc_ex.c ****       assert_param(IS_RCC_PLLI2SR_VALUE(PeriphClkInit->PLLI2S.PLLI2SR));
 536:Drivers/STM32F7xx_HAL_Driver/Src/stm32f7xx_hal_rcc_ex.c ****       assert_param(IS_RCC_PLLI2SQ_VALUE(PeriphClkInit->PLLI2S.PLLI2SQ));
 537:Drivers/STM32F7xx_HAL_Driver/Src/stm32f7xx_hal_rcc_ex.c **** 
 538:Drivers/STM32F7xx_HAL_Driver/Src/stm32f7xx_hal_rcc_ex.c ****       /* Configure the PLLI2S division factors */
 539:Drivers/STM32F7xx_HAL_Driver/Src/stm32f7xx_hal_rcc_ex.c ****       /* PLLI2S_VCO = f(VCO clock) = f(PLLI2S clock input) x (PLLI2SN/PLLI2SM) */
 540:Drivers/STM32F7xx_HAL_Driver/Src/stm32f7xx_hal_rcc_ex.c ****       /* SPDIFRXCLK = f(PLLI2S clock output) = f(VCO clock) / PLLI2SP */
 541:Drivers/STM32F7xx_HAL_Driver/Src/stm32f7xx_hal_rcc_ex.c ****       __HAL_RCC_PLLI2S_CONFIG(PeriphClkInit->PLLI2S.PLLI2SN , PeriphClkInit->PLLI2S.PLLI2SP, Periph
 643              		.loc 1 541 0
 644 043c 6268     		ldr	r2, [r4, #4]
 645 043e 2369     		ldr	r3, [r4, #16]
 646 0440 1B04     		lsls	r3, r3, #16
 647 0442 43EA8213 		orr	r3, r3, r2, lsl #6
 648 0446 E268     		ldr	r2, [r4, #12]
 649 0448 43EA0263 		orr	r3, r3, r2, lsl #24
 650 044c A268     		ldr	r2, [r4, #8]
 651 044e 43EA0273 		orr	r3, r3, r2, lsl #28
 652 0452 524A     		ldr	r2, .L88
 653 0454 C2F88430 		str	r3, [r2, #132]
 654              	.L44:
 542:Drivers/STM32F7xx_HAL_Driver/Src/stm32f7xx_hal_rcc_ex.c ****     }
 543:Drivers/STM32F7xx_HAL_Driver/Src/stm32f7xx_hal_rcc_ex.c **** 
 544:Drivers/STM32F7xx_HAL_Driver/Src/stm32f7xx_hal_rcc_ex.c ****     /* Enable the PLLI2S */
 545:Drivers/STM32F7xx_HAL_Driver/Src/stm32f7xx_hal_rcc_ex.c ****     __HAL_RCC_PLLI2S_ENABLE();
 655              		.loc 1 545 0
 656 0458 504A     		ldr	r2, .L88
 657 045a 1368     		ldr	r3, [r2]
 658 045c 43F08063 		orr	r3, r3, #67108864
 659 0460 1360     		str	r3, [r2]
 546:Drivers/STM32F7xx_HAL_Driver/Src/stm32f7xx_hal_rcc_ex.c **** 
 547:Drivers/STM32F7xx_HAL_Driver/Src/stm32f7xx_hal_rcc_ex.c ****     /* Get Start Tick*/
 548:Drivers/STM32F7xx_HAL_Driver/Src/stm32f7xx_hal_rcc_ex.c ****     tickstart = HAL_GetTick();
 660              		.loc 1 548 0
 661 0462 FFF7FEFF 		bl	HAL_GetTick
 662              	.LVL50:
 663 0466 0646     		mov	r6, r0
 664              	.LVL51:
 665              	.L45:
 549:Drivers/STM32F7xx_HAL_Driver/Src/stm32f7xx_hal_rcc_ex.c **** 
 550:Drivers/STM32F7xx_HAL_Driver/Src/stm32f7xx_hal_rcc_ex.c ****     /* Wait till PLLI2S is ready */
 551:Drivers/STM32F7xx_HAL_Driver/Src/stm32f7xx_hal_rcc_ex.c ****     while(__HAL_RCC_GET_FLAG(RCC_FLAG_PLLI2SRDY)  == RESET)
 666              		.loc 1 551 0
 667 0468 4C4B     		ldr	r3, .L88
 668 046a 1B68     		ldr	r3, [r3]
 669 046c 13F0006F 		tst	r3, #134217728
 670 0470 06D1     		bne	.L36
 552:Drivers/STM32F7xx_HAL_Driver/Src/stm32f7xx_hal_rcc_ex.c ****     {
 553:Drivers/STM32F7xx_HAL_Driver/Src/stm32f7xx_hal_rcc_ex.c ****       if((HAL_GetTick() - tickstart) > PLLI2S_TIMEOUT_VALUE)
 671              		.loc 1 553 0
 672 0472 FFF7FEFF 		bl	HAL_GetTick
ARM GAS  /tmp/cciW4iGq.s 			page 23


 673              	.LVL52:
 674 0476 801B     		subs	r0, r0, r6
 675 0478 6428     		cmp	r0, #100
 676 047a F5D9     		bls	.L45
 554:Drivers/STM32F7xx_HAL_Driver/Src/stm32f7xx_hal_rcc_ex.c ****       {
 555:Drivers/STM32F7xx_HAL_Driver/Src/stm32f7xx_hal_rcc_ex.c ****         /* return in case of Timeout detected */
 556:Drivers/STM32F7xx_HAL_Driver/Src/stm32f7xx_hal_rcc_ex.c ****         return HAL_TIMEOUT;
 677              		.loc 1 556 0
 678 047c 0320     		movs	r0, #3
 679 047e 01E0     		b	.L10
 680              	.LVL53:
 681              	.L36:
 557:Drivers/STM32F7xx_HAL_Driver/Src/stm32f7xx_hal_rcc_ex.c ****       }
 558:Drivers/STM32F7xx_HAL_Driver/Src/stm32f7xx_hal_rcc_ex.c ****     }
 559:Drivers/STM32F7xx_HAL_Driver/Src/stm32f7xx_hal_rcc_ex.c ****   }
 560:Drivers/STM32F7xx_HAL_Driver/Src/stm32f7xx_hal_rcc_ex.c **** 
 561:Drivers/STM32F7xx_HAL_Driver/Src/stm32f7xx_hal_rcc_ex.c ****   /*-------------------------------------- PLLSAI Configuration ---------------------------------*/
 562:Drivers/STM32F7xx_HAL_Driver/Src/stm32f7xx_hal_rcc_ex.c ****   /* PLLSAI is configured when a peripheral will use it as source clock : SAI1, SAI2, LTDC or CK48 
 563:Drivers/STM32F7xx_HAL_Driver/Src/stm32f7xx_hal_rcc_ex.c ****   if(pllsaiused == 1)
 682              		.loc 1 563 0
 683 0480 15B9     		cbnz	r5, .L82
 564:Drivers/STM32F7xx_HAL_Driver/Src/stm32f7xx_hal_rcc_ex.c ****   {
 565:Drivers/STM32F7xx_HAL_Driver/Src/stm32f7xx_hal_rcc_ex.c ****     /* Disable PLLSAI Clock */
 566:Drivers/STM32F7xx_HAL_Driver/Src/stm32f7xx_hal_rcc_ex.c ****     __HAL_RCC_PLLSAI_DISABLE();
 567:Drivers/STM32F7xx_HAL_Driver/Src/stm32f7xx_hal_rcc_ex.c **** 
 568:Drivers/STM32F7xx_HAL_Driver/Src/stm32f7xx_hal_rcc_ex.c ****     /* Get Start Tick*/
 569:Drivers/STM32F7xx_HAL_Driver/Src/stm32f7xx_hal_rcc_ex.c ****     tickstart = HAL_GetTick();
 570:Drivers/STM32F7xx_HAL_Driver/Src/stm32f7xx_hal_rcc_ex.c **** 
 571:Drivers/STM32F7xx_HAL_Driver/Src/stm32f7xx_hal_rcc_ex.c ****     /* Wait till PLLSAI is disabled */
 572:Drivers/STM32F7xx_HAL_Driver/Src/stm32f7xx_hal_rcc_ex.c ****     while(__HAL_RCC_PLLSAI_GET_FLAG() != RESET)
 573:Drivers/STM32F7xx_HAL_Driver/Src/stm32f7xx_hal_rcc_ex.c ****     {
 574:Drivers/STM32F7xx_HAL_Driver/Src/stm32f7xx_hal_rcc_ex.c ****       if((HAL_GetTick() - tickstart) > PLLSAI_TIMEOUT_VALUE)
 575:Drivers/STM32F7xx_HAL_Driver/Src/stm32f7xx_hal_rcc_ex.c ****       {
 576:Drivers/STM32F7xx_HAL_Driver/Src/stm32f7xx_hal_rcc_ex.c ****         /* return in case of Timeout detected */
 577:Drivers/STM32F7xx_HAL_Driver/Src/stm32f7xx_hal_rcc_ex.c ****         return HAL_TIMEOUT;
 578:Drivers/STM32F7xx_HAL_Driver/Src/stm32f7xx_hal_rcc_ex.c ****       }
 579:Drivers/STM32F7xx_HAL_Driver/Src/stm32f7xx_hal_rcc_ex.c ****     }
 580:Drivers/STM32F7xx_HAL_Driver/Src/stm32f7xx_hal_rcc_ex.c **** 
 581:Drivers/STM32F7xx_HAL_Driver/Src/stm32f7xx_hal_rcc_ex.c ****     /* Check the PLLSAI division factors */
 582:Drivers/STM32F7xx_HAL_Driver/Src/stm32f7xx_hal_rcc_ex.c ****     assert_param(IS_RCC_PLLSAIN_VALUE(PeriphClkInit->PLLSAI.PLLSAIN));
 583:Drivers/STM32F7xx_HAL_Driver/Src/stm32f7xx_hal_rcc_ex.c **** 
 584:Drivers/STM32F7xx_HAL_Driver/Src/stm32f7xx_hal_rcc_ex.c ****     /*----------------- In Case of PLLSAI is selected as source clock for SAI -------------------*/
 585:Drivers/STM32F7xx_HAL_Driver/Src/stm32f7xx_hal_rcc_ex.c ****     if(((((PeriphClkInit->PeriphClockSelection) & RCC_PERIPHCLK_SAI1) == RCC_PERIPHCLK_SAI1) && (Pe
 586:Drivers/STM32F7xx_HAL_Driver/Src/stm32f7xx_hal_rcc_ex.c ****        ((((PeriphClkInit->PeriphClockSelection) & RCC_PERIPHCLK_SAI2) == RCC_PERIPHCLK_SAI2) && (Pe
 587:Drivers/STM32F7xx_HAL_Driver/Src/stm32f7xx_hal_rcc_ex.c ****     {
 588:Drivers/STM32F7xx_HAL_Driver/Src/stm32f7xx_hal_rcc_ex.c ****       /* check for PLLSAIQ Parameter */
 589:Drivers/STM32F7xx_HAL_Driver/Src/stm32f7xx_hal_rcc_ex.c ****       assert_param(IS_RCC_PLLSAIQ_VALUE(PeriphClkInit->PLLSAI.PLLSAIQ));
 590:Drivers/STM32F7xx_HAL_Driver/Src/stm32f7xx_hal_rcc_ex.c ****       /* check for PLLSAI/DIVQ Parameter */
 591:Drivers/STM32F7xx_HAL_Driver/Src/stm32f7xx_hal_rcc_ex.c ****       assert_param(IS_RCC_PLLSAI_DIVQ_VALUE(PeriphClkInit->PLLSAIDivQ));
 592:Drivers/STM32F7xx_HAL_Driver/Src/stm32f7xx_hal_rcc_ex.c **** 
 593:Drivers/STM32F7xx_HAL_Driver/Src/stm32f7xx_hal_rcc_ex.c ****       /* Read PLLSAIP value from PLLSAICFGR register (this value is not needed for SAI configuratio
 594:Drivers/STM32F7xx_HAL_Driver/Src/stm32f7xx_hal_rcc_ex.c ****       tmpreg0 = ((RCC->PLLSAICFGR & RCC_PLLSAICFGR_PLLSAIP) >> RCC_PLLSAICFGR_PLLSAIP_Pos);
 595:Drivers/STM32F7xx_HAL_Driver/Src/stm32f7xx_hal_rcc_ex.c ****       tmpreg1 = ((RCC->PLLSAICFGR & RCC_PLLI2SCFGR_PLLI2SR) >> RCC_PLLSAICFGR_PLLSAIR_Pos);
 596:Drivers/STM32F7xx_HAL_Driver/Src/stm32f7xx_hal_rcc_ex.c ****       /* PLLSAI_VCO Input  = PLL_SOURCE/PLLM */
 597:Drivers/STM32F7xx_HAL_Driver/Src/stm32f7xx_hal_rcc_ex.c ****       /* PLLSAI_VCO Output = PLLSAI_VCO Input * PLLSAIN */
 598:Drivers/STM32F7xx_HAL_Driver/Src/stm32f7xx_hal_rcc_ex.c ****       /* SAI_CLK(first level) = PLLSAI_VCO Output/PLLSAIQ */
 599:Drivers/STM32F7xx_HAL_Driver/Src/stm32f7xx_hal_rcc_ex.c ****       __HAL_RCC_PLLSAI_CONFIG(PeriphClkInit->PLLSAI.PLLSAIN , tmpreg0, PeriphClkInit->PLLSAI.PLLSAI
ARM GAS  /tmp/cciW4iGq.s 			page 24


 600:Drivers/STM32F7xx_HAL_Driver/Src/stm32f7xx_hal_rcc_ex.c **** 
 601:Drivers/STM32F7xx_HAL_Driver/Src/stm32f7xx_hal_rcc_ex.c ****       /* SAI_CLK_x = SAI_CLK(first level)/PLLSAIDIVQ */
 602:Drivers/STM32F7xx_HAL_Driver/Src/stm32f7xx_hal_rcc_ex.c ****       __HAL_RCC_PLLSAI_PLLSAICLKDIVQ_CONFIG(PeriphClkInit->PLLSAIDivQ);
 603:Drivers/STM32F7xx_HAL_Driver/Src/stm32f7xx_hal_rcc_ex.c ****     }
 604:Drivers/STM32F7xx_HAL_Driver/Src/stm32f7xx_hal_rcc_ex.c **** 
 605:Drivers/STM32F7xx_HAL_Driver/Src/stm32f7xx_hal_rcc_ex.c ****     /*----------------- In Case of PLLSAI is selected as source clock for CLK48 -------------------
 606:Drivers/STM32F7xx_HAL_Driver/Src/stm32f7xx_hal_rcc_ex.c ****     /* In Case of PLLI2S is selected as source clock for CK48 */
 607:Drivers/STM32F7xx_HAL_Driver/Src/stm32f7xx_hal_rcc_ex.c ****     if((((PeriphClkInit->PeriphClockSelection) & RCC_PERIPHCLK_CLK48) == RCC_PERIPHCLK_CLK48) && (P
 608:Drivers/STM32F7xx_HAL_Driver/Src/stm32f7xx_hal_rcc_ex.c ****     {
 609:Drivers/STM32F7xx_HAL_Driver/Src/stm32f7xx_hal_rcc_ex.c ****       /* check for Parameters */
 610:Drivers/STM32F7xx_HAL_Driver/Src/stm32f7xx_hal_rcc_ex.c ****       assert_param(IS_RCC_PLLSAIP_VALUE(PeriphClkInit->PLLSAI.PLLSAIP));
 611:Drivers/STM32F7xx_HAL_Driver/Src/stm32f7xx_hal_rcc_ex.c ****       /* Read PLLSAIQ and PLLSAIR value from PLLSAICFGR register (this value is not needed for CK48
 612:Drivers/STM32F7xx_HAL_Driver/Src/stm32f7xx_hal_rcc_ex.c ****       tmpreg0 = ((RCC->PLLSAICFGR & RCC_PLLSAICFGR_PLLSAIQ) >> RCC_PLLSAICFGR_PLLSAIQ_Pos);
 613:Drivers/STM32F7xx_HAL_Driver/Src/stm32f7xx_hal_rcc_ex.c ****       tmpreg1 = ((RCC->PLLSAICFGR & RCC_PLLSAICFGR_PLLSAIR) >> RCC_PLLSAICFGR_PLLSAIR_Pos);
 614:Drivers/STM32F7xx_HAL_Driver/Src/stm32f7xx_hal_rcc_ex.c **** 
 615:Drivers/STM32F7xx_HAL_Driver/Src/stm32f7xx_hal_rcc_ex.c ****       /* Configure the PLLSAI division factors */
 616:Drivers/STM32F7xx_HAL_Driver/Src/stm32f7xx_hal_rcc_ex.c ****       /* PLLSAI_VCO = f(VCO clock) = f(PLLSAI clock input) x (PLLI2SN/PLLM) */
 617:Drivers/STM32F7xx_HAL_Driver/Src/stm32f7xx_hal_rcc_ex.c ****       /* 48CLK = f(PLLSAI clock output) = f(VCO clock) / PLLSAIP */
 618:Drivers/STM32F7xx_HAL_Driver/Src/stm32f7xx_hal_rcc_ex.c ****       __HAL_RCC_PLLSAI_CONFIG(PeriphClkInit->PLLSAI.PLLSAIN , PeriphClkInit->PLLSAI.PLLSAIP, tmpreg
 619:Drivers/STM32F7xx_HAL_Driver/Src/stm32f7xx_hal_rcc_ex.c ****     }
 620:Drivers/STM32F7xx_HAL_Driver/Src/stm32f7xx_hal_rcc_ex.c **** 
 621:Drivers/STM32F7xx_HAL_Driver/Src/stm32f7xx_hal_rcc_ex.c **** #if defined(STM32F746xx) || defined(STM32F756xx) || defined (STM32F767xx) || defined (STM32F769xx) 
 622:Drivers/STM32F7xx_HAL_Driver/Src/stm32f7xx_hal_rcc_ex.c ****     /*---------------------------- LTDC configuration -------------------------------*/
 623:Drivers/STM32F7xx_HAL_Driver/Src/stm32f7xx_hal_rcc_ex.c ****     if(((PeriphClkInit->PeriphClockSelection) & RCC_PERIPHCLK_LTDC) == (RCC_PERIPHCLK_LTDC))
 624:Drivers/STM32F7xx_HAL_Driver/Src/stm32f7xx_hal_rcc_ex.c ****     {
 625:Drivers/STM32F7xx_HAL_Driver/Src/stm32f7xx_hal_rcc_ex.c ****       assert_param(IS_RCC_PLLSAIR_VALUE(PeriphClkInit->PLLSAI.PLLSAIR));
 626:Drivers/STM32F7xx_HAL_Driver/Src/stm32f7xx_hal_rcc_ex.c ****       assert_param(IS_RCC_PLLSAI_DIVR_VALUE(PeriphClkInit->PLLSAIDivR));
 627:Drivers/STM32F7xx_HAL_Driver/Src/stm32f7xx_hal_rcc_ex.c **** 
 628:Drivers/STM32F7xx_HAL_Driver/Src/stm32f7xx_hal_rcc_ex.c ****       /* Read PLLSAIP and PLLSAIQ value from PLLSAICFGR register (these value are not needed for LT
 629:Drivers/STM32F7xx_HAL_Driver/Src/stm32f7xx_hal_rcc_ex.c ****       tmpreg0 = ((RCC->PLLSAICFGR & RCC_PLLSAICFGR_PLLSAIQ) >> RCC_PLLSAICFGR_PLLSAIQ_Pos);
 630:Drivers/STM32F7xx_HAL_Driver/Src/stm32f7xx_hal_rcc_ex.c ****       tmpreg1 = ((RCC->PLLSAICFGR & RCC_PLLSAICFGR_PLLSAIP) >> RCC_PLLSAICFGR_PLLSAIP_Pos);
 631:Drivers/STM32F7xx_HAL_Driver/Src/stm32f7xx_hal_rcc_ex.c **** 
 632:Drivers/STM32F7xx_HAL_Driver/Src/stm32f7xx_hal_rcc_ex.c ****       /* PLLSAI_VCO Input  = PLL_SOURCE/PLLM */
 633:Drivers/STM32F7xx_HAL_Driver/Src/stm32f7xx_hal_rcc_ex.c ****       /* PLLSAI_VCO Output = PLLSAI_VCO Input * PLLSAIN */
 634:Drivers/STM32F7xx_HAL_Driver/Src/stm32f7xx_hal_rcc_ex.c ****       /* LTDC_CLK(first level) = PLLSAI_VCO Output/PLLSAIR */
 635:Drivers/STM32F7xx_HAL_Driver/Src/stm32f7xx_hal_rcc_ex.c ****       __HAL_RCC_PLLSAI_CONFIG(PeriphClkInit->PLLSAI.PLLSAIN , tmpreg1, tmpreg0, PeriphClkInit->PLLS
 636:Drivers/STM32F7xx_HAL_Driver/Src/stm32f7xx_hal_rcc_ex.c **** 
 637:Drivers/STM32F7xx_HAL_Driver/Src/stm32f7xx_hal_rcc_ex.c ****       /* LTDC_CLK = LTDC_CLK(first level)/PLLSAIDIVR */
 638:Drivers/STM32F7xx_HAL_Driver/Src/stm32f7xx_hal_rcc_ex.c ****       __HAL_RCC_PLLSAI_PLLSAICLKDIVR_CONFIG(PeriphClkInit->PLLSAIDivR);
 639:Drivers/STM32F7xx_HAL_Driver/Src/stm32f7xx_hal_rcc_ex.c ****     }
 640:Drivers/STM32F7xx_HAL_Driver/Src/stm32f7xx_hal_rcc_ex.c **** #endif /* STM32F746xx || STM32F756xx || STM32F767xx || STM32F769xx || STM32F777xx || STM32F779xx ||
 641:Drivers/STM32F7xx_HAL_Driver/Src/stm32f7xx_hal_rcc_ex.c **** 
 642:Drivers/STM32F7xx_HAL_Driver/Src/stm32f7xx_hal_rcc_ex.c ****     /* Enable PLLSAI Clock */
 643:Drivers/STM32F7xx_HAL_Driver/Src/stm32f7xx_hal_rcc_ex.c ****     __HAL_RCC_PLLSAI_ENABLE();
 644:Drivers/STM32F7xx_HAL_Driver/Src/stm32f7xx_hal_rcc_ex.c **** 
 645:Drivers/STM32F7xx_HAL_Driver/Src/stm32f7xx_hal_rcc_ex.c ****     /* Get Start Tick*/
 646:Drivers/STM32F7xx_HAL_Driver/Src/stm32f7xx_hal_rcc_ex.c ****     tickstart = HAL_GetTick();
 647:Drivers/STM32F7xx_HAL_Driver/Src/stm32f7xx_hal_rcc_ex.c **** 
 648:Drivers/STM32F7xx_HAL_Driver/Src/stm32f7xx_hal_rcc_ex.c ****     /* Wait till PLLSAI is ready */
 649:Drivers/STM32F7xx_HAL_Driver/Src/stm32f7xx_hal_rcc_ex.c ****     while(__HAL_RCC_PLLSAI_GET_FLAG() == RESET)
 650:Drivers/STM32F7xx_HAL_Driver/Src/stm32f7xx_hal_rcc_ex.c ****     {
 651:Drivers/STM32F7xx_HAL_Driver/Src/stm32f7xx_hal_rcc_ex.c ****       if((HAL_GetTick() - tickstart) > PLLSAI_TIMEOUT_VALUE)
 652:Drivers/STM32F7xx_HAL_Driver/Src/stm32f7xx_hal_rcc_ex.c ****       {
 653:Drivers/STM32F7xx_HAL_Driver/Src/stm32f7xx_hal_rcc_ex.c ****         /* return in case of Timeout detected */
 654:Drivers/STM32F7xx_HAL_Driver/Src/stm32f7xx_hal_rcc_ex.c ****         return HAL_TIMEOUT;
 655:Drivers/STM32F7xx_HAL_Driver/Src/stm32f7xx_hal_rcc_ex.c ****       }
 656:Drivers/STM32F7xx_HAL_Driver/Src/stm32f7xx_hal_rcc_ex.c ****     }
ARM GAS  /tmp/cciW4iGq.s 			page 25


 657:Drivers/STM32F7xx_HAL_Driver/Src/stm32f7xx_hal_rcc_ex.c ****   }
 658:Drivers/STM32F7xx_HAL_Driver/Src/stm32f7xx_hal_rcc_ex.c ****   return HAL_OK;
 684              		.loc 1 658 0
 685 0482 0020     		movs	r0, #0
 686              	.LVL54:
 687              	.L10:
 659:Drivers/STM32F7xx_HAL_Driver/Src/stm32f7xx_hal_rcc_ex.c **** }
 688              		.loc 1 659 0
 689 0484 03B0     		add	sp, sp, #12
 690              	.LCFI2:
 691              		.cfi_remember_state
 692              		.cfi_def_cfa_offset 20
 693              		@ sp needed
 694 0486 F0BD     		pop	{r4, r5, r6, r7, pc}
 695              	.LVL55:
 696              	.L82:
 697              	.LCFI3:
 698              		.cfi_restore_state
 566:Drivers/STM32F7xx_HAL_Driver/Src/stm32f7xx_hal_rcc_ex.c **** 
 699              		.loc 1 566 0
 700 0488 444A     		ldr	r2, .L88
 701 048a 1368     		ldr	r3, [r2]
 702 048c 23F08053 		bic	r3, r3, #268435456
 703 0490 1360     		str	r3, [r2]
 569:Drivers/STM32F7xx_HAL_Driver/Src/stm32f7xx_hal_rcc_ex.c **** 
 704              		.loc 1 569 0
 705 0492 FFF7FEFF 		bl	HAL_GetTick
 706              	.LVL56:
 707 0496 0546     		mov	r5, r0
 708              	.LVL57:
 709              	.L47:
 572:Drivers/STM32F7xx_HAL_Driver/Src/stm32f7xx_hal_rcc_ex.c ****     {
 710              		.loc 1 572 0
 711 0498 404B     		ldr	r3, .L88
 712 049a 1B68     		ldr	r3, [r3]
 713 049c 13F0005F 		tst	r3, #536870912
 714 04a0 06D0     		beq	.L83
 574:Drivers/STM32F7xx_HAL_Driver/Src/stm32f7xx_hal_rcc_ex.c ****       {
 715              		.loc 1 574 0
 716 04a2 FFF7FEFF 		bl	HAL_GetTick
 717              	.LVL58:
 718 04a6 401B     		subs	r0, r0, r5
 719 04a8 6428     		cmp	r0, #100
 720 04aa F5D9     		bls	.L47
 577:Drivers/STM32F7xx_HAL_Driver/Src/stm32f7xx_hal_rcc_ex.c ****       }
 721              		.loc 1 577 0
 722 04ac 0320     		movs	r0, #3
 723 04ae E9E7     		b	.L10
 724              	.L83:
 585:Drivers/STM32F7xx_HAL_Driver/Src/stm32f7xx_hal_rcc_ex.c ****        ((((PeriphClkInit->PeriphClockSelection) & RCC_PERIPHCLK_SAI2) == RCC_PERIPHCLK_SAI2) && (Pe
 725              		.loc 1 585 0
 726 04b0 2368     		ldr	r3, [r4]
 727 04b2 13F4002F 		tst	r3, #524288
 728 04b6 01D0     		beq	.L49
 585:Drivers/STM32F7xx_HAL_Driver/Src/stm32f7xx_hal_rcc_ex.c ****        ((((PeriphClkInit->PeriphClockSelection) & RCC_PERIPHCLK_SAI2) == RCC_PERIPHCLK_SAI2) && (Pe
 729              		.loc 1 585 0 is_stmt 0 discriminator 1
 730 04b8 E26B     		ldr	r2, [r4, #60]
ARM GAS  /tmp/cciW4iGq.s 			page 26


 731 04ba 22B1     		cbz	r2, .L50
 732              	.L49:
 585:Drivers/STM32F7xx_HAL_Driver/Src/stm32f7xx_hal_rcc_ex.c ****        ((((PeriphClkInit->PeriphClockSelection) & RCC_PERIPHCLK_SAI2) == RCC_PERIPHCLK_SAI2) && (Pe
 733              		.loc 1 585 0 discriminator 3
 734 04bc 13F4801F 		tst	r3, #1048576
 735 04c0 1DD0     		beq	.L51
 586:Drivers/STM32F7xx_HAL_Driver/Src/stm32f7xx_hal_rcc_ex.c ****     {
 736              		.loc 1 586 0 is_stmt 1
 737 04c2 236C     		ldr	r3, [r4, #64]
 738 04c4 DBB9     		cbnz	r3, .L51
 739              	.L50:
 594:Drivers/STM32F7xx_HAL_Driver/Src/stm32f7xx_hal_rcc_ex.c ****       tmpreg1 = ((RCC->PLLSAICFGR & RCC_PLLI2SCFGR_PLLI2SR) >> RCC_PLLSAICFGR_PLLSAIR_Pos);
 740              		.loc 1 594 0
 741 04c6 354A     		ldr	r2, .L88
 742 04c8 D2F88830 		ldr	r3, [r2, #136]
 743              	.LVL59:
 595:Drivers/STM32F7xx_HAL_Driver/Src/stm32f7xx_hal_rcc_ex.c ****       /* PLLSAI_VCO Input  = PLL_SOURCE/PLLM */
 744              		.loc 1 595 0
 745 04cc D2F88810 		ldr	r1, [r2, #136]
 746              	.LVL60:
 599:Drivers/STM32F7xx_HAL_Driver/Src/stm32f7xx_hal_rcc_ex.c **** 
 747              		.loc 1 599 0
 748 04d0 6069     		ldr	r0, [r4, #20]
 749 04d2 03F44033 		and	r3, r3, #196608
 750              	.LVL61:
 751 04d6 43EA8013 		orr	r3, r3, r0, lsl #6
 752 04da A069     		ldr	r0, [r4, #24]
 753 04dc 43EA0063 		orr	r3, r3, r0, lsl #24
 754 04e0 01F0E041 		and	r1, r1, #1879048192
 755              	.LVL62:
 756 04e4 0B43     		orrs	r3, r3, r1
 757 04e6 C2F88830 		str	r3, [r2, #136]
 602:Drivers/STM32F7xx_HAL_Driver/Src/stm32f7xx_hal_rcc_ex.c ****     }
 758              		.loc 1 602 0
 759 04ea D2F88C30 		ldr	r3, [r2, #140]
 760 04ee 23F4F853 		bic	r3, r3, #7936
 761 04f2 A16A     		ldr	r1, [r4, #40]
 762 04f4 0139     		subs	r1, r1, #1
 763 04f6 43EA0123 		orr	r3, r3, r1, lsl #8
 764 04fa C2F88C30 		str	r3, [r2, #140]
 765              	.L51:
 607:Drivers/STM32F7xx_HAL_Driver/Src/stm32f7xx_hal_rcc_ex.c ****     {
 766              		.loc 1 607 0
 767 04fe 2368     		ldr	r3, [r4]
 768 0500 13F4001F 		tst	r3, #2097152
 769 0504 03D0     		beq	.L52
 607:Drivers/STM32F7xx_HAL_Driver/Src/stm32f7xx_hal_rcc_ex.c ****     {
 770              		.loc 1 607 0 is_stmt 0 discriminator 1
 771 0506 E36F     		ldr	r3, [r4, #124]
 772 0508 B3F1006F 		cmp	r3, #134217728
 773 050c 31D0     		beq	.L84
 774              	.LVL63:
 775              	.L52:
 623:Drivers/STM32F7xx_HAL_Driver/Src/stm32f7xx_hal_rcc_ex.c ****     {
 776              		.loc 1 623 0 is_stmt 1
 777 050e 2368     		ldr	r3, [r4]
 778 0510 13F0080F 		tst	r3, #8
ARM GAS  /tmp/cciW4iGq.s 			page 27


 779 0514 19D0     		beq	.L53
 629:Drivers/STM32F7xx_HAL_Driver/Src/stm32f7xx_hal_rcc_ex.c ****       tmpreg1 = ((RCC->PLLSAICFGR & RCC_PLLSAICFGR_PLLSAIP) >> RCC_PLLSAICFGR_PLLSAIP_Pos);
 780              		.loc 1 629 0
 781 0516 214A     		ldr	r2, .L88
 782 0518 D2F88810 		ldr	r1, [r2, #136]
 783              	.LVL64:
 630:Drivers/STM32F7xx_HAL_Driver/Src/stm32f7xx_hal_rcc_ex.c **** 
 784              		.loc 1 630 0
 785 051c D2F88830 		ldr	r3, [r2, #136]
 786              	.LVL65:
 635:Drivers/STM32F7xx_HAL_Driver/Src/stm32f7xx_hal_rcc_ex.c **** 
 787              		.loc 1 635 0
 788 0520 6069     		ldr	r0, [r4, #20]
 789 0522 03F44033 		and	r3, r3, #196608
 790              	.LVL66:
 791 0526 43EA8013 		orr	r3, r3, r0, lsl #6
 792 052a 01F07061 		and	r1, r1, #251658240
 793              	.LVL67:
 794 052e 0B43     		orrs	r3, r3, r1
 795 0530 E169     		ldr	r1, [r4, #28]
 796 0532 43EA0173 		orr	r3, r3, r1, lsl #28
 797 0536 C2F88830 		str	r3, [r2, #136]
 638:Drivers/STM32F7xx_HAL_Driver/Src/stm32f7xx_hal_rcc_ex.c ****     }
 798              		.loc 1 638 0
 799 053a D2F88C30 		ldr	r3, [r2, #140]
 800 053e 23F44033 		bic	r3, r3, #196608
 801 0542 E16A     		ldr	r1, [r4, #44]
 802 0544 0B43     		orrs	r3, r3, r1
 803 0546 C2F88C30 		str	r3, [r2, #140]
 804              	.L53:
 643:Drivers/STM32F7xx_HAL_Driver/Src/stm32f7xx_hal_rcc_ex.c **** 
 805              		.loc 1 643 0
 806 054a 144A     		ldr	r2, .L88
 807 054c 1368     		ldr	r3, [r2]
 808 054e 43F08053 		orr	r3, r3, #268435456
 809 0552 1360     		str	r3, [r2]
 646:Drivers/STM32F7xx_HAL_Driver/Src/stm32f7xx_hal_rcc_ex.c **** 
 810              		.loc 1 646 0
 811 0554 FFF7FEFF 		bl	HAL_GetTick
 812              	.LVL68:
 813 0558 0446     		mov	r4, r0
 814              	.LVL69:
 815              	.L54:
 649:Drivers/STM32F7xx_HAL_Driver/Src/stm32f7xx_hal_rcc_ex.c ****     {
 816              		.loc 1 649 0
 817 055a 104B     		ldr	r3, .L88
 818 055c 1B68     		ldr	r3, [r3]
 819 055e 13F0005F 		tst	r3, #536870912
 820 0562 19D1     		bne	.L85
 651:Drivers/STM32F7xx_HAL_Driver/Src/stm32f7xx_hal_rcc_ex.c ****       {
 821              		.loc 1 651 0
 822 0564 FFF7FEFF 		bl	HAL_GetTick
 823              	.LVL70:
 824 0568 001B     		subs	r0, r0, r4
 825 056a 6428     		cmp	r0, #100
 826 056c F5D9     		bls	.L54
 654:Drivers/STM32F7xx_HAL_Driver/Src/stm32f7xx_hal_rcc_ex.c ****       }
ARM GAS  /tmp/cciW4iGq.s 			page 28


 827              		.loc 1 654 0
 828 056e 0320     		movs	r0, #3
 829 0570 88E7     		b	.L10
 830              	.LVL71:
 831              	.L84:
 612:Drivers/STM32F7xx_HAL_Driver/Src/stm32f7xx_hal_rcc_ex.c ****       tmpreg1 = ((RCC->PLLSAICFGR & RCC_PLLSAICFGR_PLLSAIR) >> RCC_PLLSAICFGR_PLLSAIR_Pos);
 832              		.loc 1 612 0
 833 0572 0A4A     		ldr	r2, .L88
 834 0574 D2F88800 		ldr	r0, [r2, #136]
 835              	.LVL72:
 613:Drivers/STM32F7xx_HAL_Driver/Src/stm32f7xx_hal_rcc_ex.c **** 
 836              		.loc 1 613 0
 837 0578 D2F88810 		ldr	r1, [r2, #136]
 838              	.LVL73:
 618:Drivers/STM32F7xx_HAL_Driver/Src/stm32f7xx_hal_rcc_ex.c ****     }
 839              		.loc 1 618 0
 840 057c 6569     		ldr	r5, [r4, #20]
 841              	.LVL74:
 842 057e 236A     		ldr	r3, [r4, #32]
 843 0580 1B04     		lsls	r3, r3, #16
 844 0582 43EA8513 		orr	r3, r3, r5, lsl #6
 845 0586 00F07060 		and	r0, r0, #251658240
 846              	.LVL75:
 847 058a 0343     		orrs	r3, r3, r0
 848 058c 01F0E041 		and	r1, r1, #1879048192
 849              	.LVL76:
 850 0590 0B43     		orrs	r3, r3, r1
 851 0592 C2F88830 		str	r3, [r2, #136]
 852 0596 BAE7     		b	.L52
 853              	.LVL77:
 854              	.L85:
 658:Drivers/STM32F7xx_HAL_Driver/Src/stm32f7xx_hal_rcc_ex.c **** }
 855              		.loc 1 658 0
 856 0598 0020     		movs	r0, #0
 857 059a 73E7     		b	.L10
 858              	.L89:
 859              		.align	2
 860              	.L88:
 861 059c 00380240 		.word	1073887232
 862 05a0 FFFCFF0F 		.word	268434687
 863              		.cfi_endproc
 864              	.LFE141:
 866              		.section	.text.HAL_RCCEx_GetPeriphCLKConfig,"ax",%progbits
 867              		.align	1
 868              		.global	HAL_RCCEx_GetPeriphCLKConfig
 869              		.syntax unified
 870              		.thumb
 871              		.thumb_func
 872              		.fpu fpv5-sp-d16
 874              	HAL_RCCEx_GetPeriphCLKConfig:
 875              	.LFB142:
 660:Drivers/STM32F7xx_HAL_Driver/Src/stm32f7xx_hal_rcc_ex.c **** 
 661:Drivers/STM32F7xx_HAL_Driver/Src/stm32f7xx_hal_rcc_ex.c **** /**
 662:Drivers/STM32F7xx_HAL_Driver/Src/stm32f7xx_hal_rcc_ex.c ****   * @brief  Get the RCC_PeriphCLKInitTypeDef according to the internal
 663:Drivers/STM32F7xx_HAL_Driver/Src/stm32f7xx_hal_rcc_ex.c ****   *         RCC configuration registers.
 664:Drivers/STM32F7xx_HAL_Driver/Src/stm32f7xx_hal_rcc_ex.c ****   * @param  PeriphClkInit pointer to the configured RCC_PeriphCLKInitTypeDef structure
 665:Drivers/STM32F7xx_HAL_Driver/Src/stm32f7xx_hal_rcc_ex.c ****   * @retval None
ARM GAS  /tmp/cciW4iGq.s 			page 29


 666:Drivers/STM32F7xx_HAL_Driver/Src/stm32f7xx_hal_rcc_ex.c ****   */
 667:Drivers/STM32F7xx_HAL_Driver/Src/stm32f7xx_hal_rcc_ex.c **** void HAL_RCCEx_GetPeriphCLKConfig(RCC_PeriphCLKInitTypeDef  *PeriphClkInit)
 668:Drivers/STM32F7xx_HAL_Driver/Src/stm32f7xx_hal_rcc_ex.c **** {
 876              		.loc 1 668 0
 877              		.cfi_startproc
 878              		@ args = 0, pretend = 0, frame = 0
 879              		@ frame_needed = 0, uses_anonymous_args = 0
 880              		@ link register save eliminated.
 881              	.LVL78:
 669:Drivers/STM32F7xx_HAL_Driver/Src/stm32f7xx_hal_rcc_ex.c ****   uint32_t tempreg = 0;
 670:Drivers/STM32F7xx_HAL_Driver/Src/stm32f7xx_hal_rcc_ex.c **** 
 671:Drivers/STM32F7xx_HAL_Driver/Src/stm32f7xx_hal_rcc_ex.c ****   /* Set all possible values for the extended clock type parameter------------*/
 672:Drivers/STM32F7xx_HAL_Driver/Src/stm32f7xx_hal_rcc_ex.c **** #if defined (STM32F765xx) || defined (STM32F767xx) || defined (STM32F769xx) || defined (STM32F777xx
 673:Drivers/STM32F7xx_HAL_Driver/Src/stm32f7xx_hal_rcc_ex.c ****   PeriphClkInit->PeriphClockSelection = RCC_PERIPHCLK_I2S      | RCC_PERIPHCLK_LPTIM1   |\
 674:Drivers/STM32F7xx_HAL_Driver/Src/stm32f7xx_hal_rcc_ex.c ****                                         RCC_PERIPHCLK_SAI1     | RCC_PERIPHCLK_SAI2     |\
 675:Drivers/STM32F7xx_HAL_Driver/Src/stm32f7xx_hal_rcc_ex.c ****                                         RCC_PERIPHCLK_TIM      | RCC_PERIPHCLK_RTC      |\
 676:Drivers/STM32F7xx_HAL_Driver/Src/stm32f7xx_hal_rcc_ex.c ****                                         RCC_PERIPHCLK_CEC      | RCC_PERIPHCLK_I2C4     |\
 677:Drivers/STM32F7xx_HAL_Driver/Src/stm32f7xx_hal_rcc_ex.c ****                                         RCC_PERIPHCLK_I2C1     | RCC_PERIPHCLK_I2C2     |\
 678:Drivers/STM32F7xx_HAL_Driver/Src/stm32f7xx_hal_rcc_ex.c ****                                         RCC_PERIPHCLK_I2C3     | RCC_PERIPHCLK_USART1   |\
 679:Drivers/STM32F7xx_HAL_Driver/Src/stm32f7xx_hal_rcc_ex.c ****                                         RCC_PERIPHCLK_USART2   | RCC_PERIPHCLK_USART3   |\
 680:Drivers/STM32F7xx_HAL_Driver/Src/stm32f7xx_hal_rcc_ex.c ****                                         RCC_PERIPHCLK_UART4    | RCC_PERIPHCLK_UART5    |\
 681:Drivers/STM32F7xx_HAL_Driver/Src/stm32f7xx_hal_rcc_ex.c ****                                         RCC_PERIPHCLK_USART6   | RCC_PERIPHCLK_UART7    |\
 682:Drivers/STM32F7xx_HAL_Driver/Src/stm32f7xx_hal_rcc_ex.c ****                                         RCC_PERIPHCLK_UART8    | RCC_PERIPHCLK_SDMMC1   |\
 683:Drivers/STM32F7xx_HAL_Driver/Src/stm32f7xx_hal_rcc_ex.c ****                                         RCC_PERIPHCLK_CLK48    | RCC_PERIPHCLK_SDMMC2   |\
 684:Drivers/STM32F7xx_HAL_Driver/Src/stm32f7xx_hal_rcc_ex.c ****                                         RCC_PERIPHCLK_DFSDM1   | RCC_PERIPHCLK_DFSDM1_AUDIO;
 685:Drivers/STM32F7xx_HAL_Driver/Src/stm32f7xx_hal_rcc_ex.c **** #else
 686:Drivers/STM32F7xx_HAL_Driver/Src/stm32f7xx_hal_rcc_ex.c ****   PeriphClkInit->PeriphClockSelection = RCC_PERIPHCLK_I2S      | RCC_PERIPHCLK_LPTIM1   |\
 882              		.loc 1 686 0
 883 0000 564B     		ldr	r3, .L94
 884 0002 0360     		str	r3, [r0]
 687:Drivers/STM32F7xx_HAL_Driver/Src/stm32f7xx_hal_rcc_ex.c ****                                         RCC_PERIPHCLK_SAI1     | RCC_PERIPHCLK_SAI2     |\
 688:Drivers/STM32F7xx_HAL_Driver/Src/stm32f7xx_hal_rcc_ex.c ****                                         RCC_PERIPHCLK_TIM      | RCC_PERIPHCLK_RTC      |\
 689:Drivers/STM32F7xx_HAL_Driver/Src/stm32f7xx_hal_rcc_ex.c ****                                         RCC_PERIPHCLK_CEC      | RCC_PERIPHCLK_I2C4     |\
 690:Drivers/STM32F7xx_HAL_Driver/Src/stm32f7xx_hal_rcc_ex.c ****                                         RCC_PERIPHCLK_I2C1     | RCC_PERIPHCLK_I2C2     |\
 691:Drivers/STM32F7xx_HAL_Driver/Src/stm32f7xx_hal_rcc_ex.c ****                                         RCC_PERIPHCLK_I2C3     | RCC_PERIPHCLK_USART1   |\
 692:Drivers/STM32F7xx_HAL_Driver/Src/stm32f7xx_hal_rcc_ex.c ****                                         RCC_PERIPHCLK_USART2   | RCC_PERIPHCLK_USART3   |\
 693:Drivers/STM32F7xx_HAL_Driver/Src/stm32f7xx_hal_rcc_ex.c ****                                         RCC_PERIPHCLK_UART4    | RCC_PERIPHCLK_UART5    |\
 694:Drivers/STM32F7xx_HAL_Driver/Src/stm32f7xx_hal_rcc_ex.c ****                                         RCC_PERIPHCLK_USART6   | RCC_PERIPHCLK_UART7    |\
 695:Drivers/STM32F7xx_HAL_Driver/Src/stm32f7xx_hal_rcc_ex.c ****                                         RCC_PERIPHCLK_UART8    | RCC_PERIPHCLK_SDMMC1   |\
 696:Drivers/STM32F7xx_HAL_Driver/Src/stm32f7xx_hal_rcc_ex.c ****                                         RCC_PERIPHCLK_CLK48;
 697:Drivers/STM32F7xx_HAL_Driver/Src/stm32f7xx_hal_rcc_ex.c **** #endif /* STM32F767xx || STM32F769xx || STM32F777xx || STM32F779xx */
 698:Drivers/STM32F7xx_HAL_Driver/Src/stm32f7xx_hal_rcc_ex.c **** 
 699:Drivers/STM32F7xx_HAL_Driver/Src/stm32f7xx_hal_rcc_ex.c ****   /* Get the PLLI2S Clock configuration -----------------------------------------------*/
 700:Drivers/STM32F7xx_HAL_Driver/Src/stm32f7xx_hal_rcc_ex.c ****   PeriphClkInit->PLLI2S.PLLI2SN = (uint32_t)((RCC->PLLI2SCFGR & RCC_PLLI2SCFGR_PLLI2SN) >> RCC_PLLI
 885              		.loc 1 700 0
 886 0004 564B     		ldr	r3, .L94+4
 887 0006 D3F88420 		ldr	r2, [r3, #132]
 888 000a C2F38812 		ubfx	r2, r2, #6, #9
 889 000e 4260     		str	r2, [r0, #4]
 701:Drivers/STM32F7xx_HAL_Driver/Src/stm32f7xx_hal_rcc_ex.c ****   PeriphClkInit->PLLI2S.PLLI2SP = (uint32_t)((RCC->PLLI2SCFGR & RCC_PLLI2SCFGR_PLLI2SP) >> RCC_PLLI
 890              		.loc 1 701 0
 891 0010 D3F88420 		ldr	r2, [r3, #132]
 892 0014 C2F30142 		ubfx	r2, r2, #16, #2
 893 0018 0261     		str	r2, [r0, #16]
 702:Drivers/STM32F7xx_HAL_Driver/Src/stm32f7xx_hal_rcc_ex.c ****   PeriphClkInit->PLLI2S.PLLI2SQ = (uint32_t)((RCC->PLLI2SCFGR & RCC_PLLI2SCFGR_PLLI2SQ) >> RCC_PLLI
 894              		.loc 1 702 0
 895 001a D3F88420 		ldr	r2, [r3, #132]
ARM GAS  /tmp/cciW4iGq.s 			page 30


 896 001e C2F30362 		ubfx	r2, r2, #24, #4
 897 0022 C260     		str	r2, [r0, #12]
 703:Drivers/STM32F7xx_HAL_Driver/Src/stm32f7xx_hal_rcc_ex.c ****   PeriphClkInit->PLLI2S.PLLI2SR = (uint32_t)((RCC->PLLI2SCFGR & RCC_PLLI2SCFGR_PLLI2SR) >> RCC_PLLI
 898              		.loc 1 703 0
 899 0024 D3F88420 		ldr	r2, [r3, #132]
 900 0028 C2F30272 		ubfx	r2, r2, #28, #3
 901 002c 8260     		str	r2, [r0, #8]
 704:Drivers/STM32F7xx_HAL_Driver/Src/stm32f7xx_hal_rcc_ex.c **** 
 705:Drivers/STM32F7xx_HAL_Driver/Src/stm32f7xx_hal_rcc_ex.c ****   /* Get the PLLSAI Clock configuration -----------------------------------------------*/
 706:Drivers/STM32F7xx_HAL_Driver/Src/stm32f7xx_hal_rcc_ex.c ****   PeriphClkInit->PLLSAI.PLLSAIN = (uint32_t)((RCC->PLLSAICFGR & RCC_PLLSAICFGR_PLLSAIN) >> RCC_PLLS
 902              		.loc 1 706 0
 903 002e D3F88820 		ldr	r2, [r3, #136]
 904 0032 C2F38812 		ubfx	r2, r2, #6, #9
 905 0036 4261     		str	r2, [r0, #20]
 707:Drivers/STM32F7xx_HAL_Driver/Src/stm32f7xx_hal_rcc_ex.c ****   PeriphClkInit->PLLSAI.PLLSAIP = (uint32_t)((RCC->PLLSAICFGR & RCC_PLLSAICFGR_PLLSAIP) >> RCC_PLLS
 906              		.loc 1 707 0
 907 0038 D3F88820 		ldr	r2, [r3, #136]
 908 003c C2F30142 		ubfx	r2, r2, #16, #2
 909 0040 0262     		str	r2, [r0, #32]
 708:Drivers/STM32F7xx_HAL_Driver/Src/stm32f7xx_hal_rcc_ex.c ****   PeriphClkInit->PLLSAI.PLLSAIQ = (uint32_t)((RCC->PLLSAICFGR & RCC_PLLSAICFGR_PLLSAIQ) >> RCC_PLLS
 910              		.loc 1 708 0
 911 0042 D3F88820 		ldr	r2, [r3, #136]
 912 0046 C2F30362 		ubfx	r2, r2, #24, #4
 913 004a 8261     		str	r2, [r0, #24]
 709:Drivers/STM32F7xx_HAL_Driver/Src/stm32f7xx_hal_rcc_ex.c ****   PeriphClkInit->PLLSAI.PLLSAIR = (uint32_t)((RCC->PLLSAICFGR & RCC_PLLSAICFGR_PLLSAIR) >> RCC_PLLS
 914              		.loc 1 709 0
 915 004c D3F88820 		ldr	r2, [r3, #136]
 916 0050 C2F30272 		ubfx	r2, r2, #28, #3
 917 0054 C261     		str	r2, [r0, #28]
 710:Drivers/STM32F7xx_HAL_Driver/Src/stm32f7xx_hal_rcc_ex.c **** 
 711:Drivers/STM32F7xx_HAL_Driver/Src/stm32f7xx_hal_rcc_ex.c ****   /* Get the PLLSAI/PLLI2S division factors -------------------------------------------*/
 712:Drivers/STM32F7xx_HAL_Driver/Src/stm32f7xx_hal_rcc_ex.c ****   PeriphClkInit->PLLI2SDivQ = (uint32_t)((RCC->DCKCFGR1 & RCC_DCKCFGR1_PLLI2SDIVQ) >> RCC_DCKCFGR1_
 918              		.loc 1 712 0
 919 0056 D3F88C20 		ldr	r2, [r3, #140]
 920 005a 02F01F02 		and	r2, r2, #31
 921 005e 4262     		str	r2, [r0, #36]
 713:Drivers/STM32F7xx_HAL_Driver/Src/stm32f7xx_hal_rcc_ex.c ****   PeriphClkInit->PLLSAIDivQ = (uint32_t)((RCC->DCKCFGR1 & RCC_DCKCFGR1_PLLSAIDIVQ) >> RCC_DCKCFGR1_
 922              		.loc 1 713 0
 923 0060 D3F88C20 		ldr	r2, [r3, #140]
 924 0064 C2F30422 		ubfx	r2, r2, #8, #5
 925 0068 8262     		str	r2, [r0, #40]
 714:Drivers/STM32F7xx_HAL_Driver/Src/stm32f7xx_hal_rcc_ex.c ****   PeriphClkInit->PLLSAIDivR = (uint32_t)((RCC->DCKCFGR1 & RCC_DCKCFGR1_PLLSAIDIVR) >> RCC_DCKCFGR1_
 926              		.loc 1 714 0
 927 006a D3F88C20 		ldr	r2, [r3, #140]
 928 006e C2F30142 		ubfx	r2, r2, #16, #2
 929 0072 C262     		str	r2, [r0, #44]
 715:Drivers/STM32F7xx_HAL_Driver/Src/stm32f7xx_hal_rcc_ex.c **** 
 716:Drivers/STM32F7xx_HAL_Driver/Src/stm32f7xx_hal_rcc_ex.c ****   /* Get the SAI1 clock configuration ----------------------------------------------*/
 717:Drivers/STM32F7xx_HAL_Driver/Src/stm32f7xx_hal_rcc_ex.c ****   PeriphClkInit->Sai1ClockSelection = __HAL_RCC_GET_SAI1_SOURCE();
 930              		.loc 1 717 0
 931 0074 D3F88C20 		ldr	r2, [r3, #140]
 932 0078 02F44012 		and	r2, r2, #3145728
 933 007c C263     		str	r2, [r0, #60]
 718:Drivers/STM32F7xx_HAL_Driver/Src/stm32f7xx_hal_rcc_ex.c **** 
 719:Drivers/STM32F7xx_HAL_Driver/Src/stm32f7xx_hal_rcc_ex.c ****   /* Get the SAI2 clock configuration ----------------------------------------------*/
 720:Drivers/STM32F7xx_HAL_Driver/Src/stm32f7xx_hal_rcc_ex.c ****   PeriphClkInit->Sai2ClockSelection = __HAL_RCC_GET_SAI2_SOURCE();
 934              		.loc 1 720 0
ARM GAS  /tmp/cciW4iGq.s 			page 31


 935 007e D3F88C20 		ldr	r2, [r3, #140]
 936 0082 02F44002 		and	r2, r2, #12582912
 937 0086 0264     		str	r2, [r0, #64]
 721:Drivers/STM32F7xx_HAL_Driver/Src/stm32f7xx_hal_rcc_ex.c **** 
 722:Drivers/STM32F7xx_HAL_Driver/Src/stm32f7xx_hal_rcc_ex.c ****   /* Get the I2S clock configuration ------------------------------------------*/
 723:Drivers/STM32F7xx_HAL_Driver/Src/stm32f7xx_hal_rcc_ex.c ****   PeriphClkInit->I2sClockSelection = __HAL_RCC_GET_I2SCLKSOURCE();
 938              		.loc 1 723 0
 939 0088 9A68     		ldr	r2, [r3, #8]
 940 008a 02F40002 		and	r2, r2, #8388608
 941 008e 4263     		str	r2, [r0, #52]
 724:Drivers/STM32F7xx_HAL_Driver/Src/stm32f7xx_hal_rcc_ex.c **** 
 725:Drivers/STM32F7xx_HAL_Driver/Src/stm32f7xx_hal_rcc_ex.c ****   /* Get the I2C1 clock configuration ------------------------------------------*/
 726:Drivers/STM32F7xx_HAL_Driver/Src/stm32f7xx_hal_rcc_ex.c ****   PeriphClkInit->I2c1ClockSelection = __HAL_RCC_GET_I2C1_SOURCE();
 942              		.loc 1 726 0
 943 0090 D3F89020 		ldr	r2, [r3, #144]
 944 0094 02F44032 		and	r2, r2, #196608
 945 0098 4266     		str	r2, [r0, #100]
 727:Drivers/STM32F7xx_HAL_Driver/Src/stm32f7xx_hal_rcc_ex.c **** 
 728:Drivers/STM32F7xx_HAL_Driver/Src/stm32f7xx_hal_rcc_ex.c ****   /* Get the I2C2 clock configuration ------------------------------------------*/
 729:Drivers/STM32F7xx_HAL_Driver/Src/stm32f7xx_hal_rcc_ex.c ****   PeriphClkInit->I2c2ClockSelection = __HAL_RCC_GET_I2C2_SOURCE();
 946              		.loc 1 729 0
 947 009a D3F89020 		ldr	r2, [r3, #144]
 948 009e 02F44022 		and	r2, r2, #786432
 949 00a2 8266     		str	r2, [r0, #104]
 730:Drivers/STM32F7xx_HAL_Driver/Src/stm32f7xx_hal_rcc_ex.c **** 
 731:Drivers/STM32F7xx_HAL_Driver/Src/stm32f7xx_hal_rcc_ex.c ****   /* Get the I2C3 clock configuration ------------------------------------------*/
 732:Drivers/STM32F7xx_HAL_Driver/Src/stm32f7xx_hal_rcc_ex.c ****   PeriphClkInit->I2c3ClockSelection = __HAL_RCC_GET_I2C3_SOURCE();
 950              		.loc 1 732 0
 951 00a4 D3F89020 		ldr	r2, [r3, #144]
 952 00a8 02F44012 		and	r2, r2, #3145728
 953 00ac C266     		str	r2, [r0, #108]
 733:Drivers/STM32F7xx_HAL_Driver/Src/stm32f7xx_hal_rcc_ex.c **** 
 734:Drivers/STM32F7xx_HAL_Driver/Src/stm32f7xx_hal_rcc_ex.c ****   /* Get the I2C4 clock configuration ------------------------------------------*/
 735:Drivers/STM32F7xx_HAL_Driver/Src/stm32f7xx_hal_rcc_ex.c ****   PeriphClkInit->I2c4ClockSelection = __HAL_RCC_GET_I2C4_SOURCE();
 954              		.loc 1 735 0
 955 00ae D3F89020 		ldr	r2, [r3, #144]
 956 00b2 02F44002 		and	r2, r2, #12582912
 957 00b6 0267     		str	r2, [r0, #112]
 736:Drivers/STM32F7xx_HAL_Driver/Src/stm32f7xx_hal_rcc_ex.c **** 
 737:Drivers/STM32F7xx_HAL_Driver/Src/stm32f7xx_hal_rcc_ex.c ****   /* Get the USART1 clock configuration ------------------------------------------*/
 738:Drivers/STM32F7xx_HAL_Driver/Src/stm32f7xx_hal_rcc_ex.c ****   PeriphClkInit->Usart1ClockSelection = __HAL_RCC_GET_USART1_SOURCE();
 958              		.loc 1 738 0
 959 00b8 D3F89020 		ldr	r2, [r3, #144]
 960 00bc 02F00302 		and	r2, r2, #3
 961 00c0 4264     		str	r2, [r0, #68]
 739:Drivers/STM32F7xx_HAL_Driver/Src/stm32f7xx_hal_rcc_ex.c **** 
 740:Drivers/STM32F7xx_HAL_Driver/Src/stm32f7xx_hal_rcc_ex.c ****   /* Get the USART2 clock configuration ------------------------------------------*/
 741:Drivers/STM32F7xx_HAL_Driver/Src/stm32f7xx_hal_rcc_ex.c ****   PeriphClkInit->Usart2ClockSelection = __HAL_RCC_GET_USART2_SOURCE();
 962              		.loc 1 741 0
 963 00c2 D3F89020 		ldr	r2, [r3, #144]
 964 00c6 02F00C02 		and	r2, r2, #12
 965 00ca 8264     		str	r2, [r0, #72]
 742:Drivers/STM32F7xx_HAL_Driver/Src/stm32f7xx_hal_rcc_ex.c **** 
 743:Drivers/STM32F7xx_HAL_Driver/Src/stm32f7xx_hal_rcc_ex.c ****   /* Get the USART3 clock configuration ------------------------------------------*/
 744:Drivers/STM32F7xx_HAL_Driver/Src/stm32f7xx_hal_rcc_ex.c ****   PeriphClkInit->Usart3ClockSelection = __HAL_RCC_GET_USART3_SOURCE();
 966              		.loc 1 744 0
 967 00cc D3F89020 		ldr	r2, [r3, #144]
ARM GAS  /tmp/cciW4iGq.s 			page 32


 968 00d0 02F03002 		and	r2, r2, #48
 969 00d4 C264     		str	r2, [r0, #76]
 745:Drivers/STM32F7xx_HAL_Driver/Src/stm32f7xx_hal_rcc_ex.c **** 
 746:Drivers/STM32F7xx_HAL_Driver/Src/stm32f7xx_hal_rcc_ex.c ****   /* Get the UART4 clock configuration ------------------------------------------*/
 747:Drivers/STM32F7xx_HAL_Driver/Src/stm32f7xx_hal_rcc_ex.c ****   PeriphClkInit->Uart4ClockSelection = __HAL_RCC_GET_UART4_SOURCE();
 970              		.loc 1 747 0
 971 00d6 D3F89020 		ldr	r2, [r3, #144]
 972 00da 02F0C002 		and	r2, r2, #192
 973 00de 0265     		str	r2, [r0, #80]
 748:Drivers/STM32F7xx_HAL_Driver/Src/stm32f7xx_hal_rcc_ex.c **** 
 749:Drivers/STM32F7xx_HAL_Driver/Src/stm32f7xx_hal_rcc_ex.c ****   /* Get the UART5 clock configuration ------------------------------------------*/
 750:Drivers/STM32F7xx_HAL_Driver/Src/stm32f7xx_hal_rcc_ex.c ****   PeriphClkInit->Uart5ClockSelection = __HAL_RCC_GET_UART5_SOURCE();
 974              		.loc 1 750 0
 975 00e0 D3F89020 		ldr	r2, [r3, #144]
 976 00e4 02F44072 		and	r2, r2, #768
 977 00e8 4265     		str	r2, [r0, #84]
 751:Drivers/STM32F7xx_HAL_Driver/Src/stm32f7xx_hal_rcc_ex.c **** 
 752:Drivers/STM32F7xx_HAL_Driver/Src/stm32f7xx_hal_rcc_ex.c ****   /* Get the USART6 clock configuration ------------------------------------------*/
 753:Drivers/STM32F7xx_HAL_Driver/Src/stm32f7xx_hal_rcc_ex.c ****   PeriphClkInit->Usart6ClockSelection = __HAL_RCC_GET_USART6_SOURCE();
 978              		.loc 1 753 0
 979 00ea D3F89020 		ldr	r2, [r3, #144]
 980 00ee 02F44062 		and	r2, r2, #3072
 981 00f2 8265     		str	r2, [r0, #88]
 754:Drivers/STM32F7xx_HAL_Driver/Src/stm32f7xx_hal_rcc_ex.c **** 
 755:Drivers/STM32F7xx_HAL_Driver/Src/stm32f7xx_hal_rcc_ex.c ****   /* Get the UART7 clock configuration ------------------------------------------*/
 756:Drivers/STM32F7xx_HAL_Driver/Src/stm32f7xx_hal_rcc_ex.c ****   PeriphClkInit->Uart7ClockSelection = __HAL_RCC_GET_UART7_SOURCE();
 982              		.loc 1 756 0
 983 00f4 D3F89020 		ldr	r2, [r3, #144]
 984 00f8 02F44052 		and	r2, r2, #12288
 985 00fc C265     		str	r2, [r0, #92]
 757:Drivers/STM32F7xx_HAL_Driver/Src/stm32f7xx_hal_rcc_ex.c **** 
 758:Drivers/STM32F7xx_HAL_Driver/Src/stm32f7xx_hal_rcc_ex.c ****   /* Get the UART8 clock configuration ------------------------------------------*/
 759:Drivers/STM32F7xx_HAL_Driver/Src/stm32f7xx_hal_rcc_ex.c ****   PeriphClkInit->Uart8ClockSelection = __HAL_RCC_GET_UART8_SOURCE();
 986              		.loc 1 759 0
 987 00fe D3F89020 		ldr	r2, [r3, #144]
 988 0102 02F44042 		and	r2, r2, #49152
 989 0106 0266     		str	r2, [r0, #96]
 760:Drivers/STM32F7xx_HAL_Driver/Src/stm32f7xx_hal_rcc_ex.c **** 
 761:Drivers/STM32F7xx_HAL_Driver/Src/stm32f7xx_hal_rcc_ex.c ****   /* Get the LPTIM1 clock configuration ------------------------------------------*/
 762:Drivers/STM32F7xx_HAL_Driver/Src/stm32f7xx_hal_rcc_ex.c ****   PeriphClkInit->Lptim1ClockSelection = __HAL_RCC_GET_LPTIM1_SOURCE();
 990              		.loc 1 762 0
 991 0108 D3F89020 		ldr	r2, [r3, #144]
 992 010c 02F04072 		and	r2, r2, #50331648
 993 0110 4267     		str	r2, [r0, #116]
 763:Drivers/STM32F7xx_HAL_Driver/Src/stm32f7xx_hal_rcc_ex.c **** 
 764:Drivers/STM32F7xx_HAL_Driver/Src/stm32f7xx_hal_rcc_ex.c ****   /* Get the CEC clock configuration -----------------------------------------------*/
 765:Drivers/STM32F7xx_HAL_Driver/Src/stm32f7xx_hal_rcc_ex.c ****   PeriphClkInit->CecClockSelection = __HAL_RCC_GET_CEC_SOURCE();
 994              		.loc 1 765 0
 995 0112 D3F89020 		ldr	r2, [r3, #144]
 996 0116 02F08062 		and	r2, r2, #67108864
 997 011a 8267     		str	r2, [r0, #120]
 766:Drivers/STM32F7xx_HAL_Driver/Src/stm32f7xx_hal_rcc_ex.c **** 
 767:Drivers/STM32F7xx_HAL_Driver/Src/stm32f7xx_hal_rcc_ex.c ****   /* Get the CK48 clock configuration -----------------------------------------------*/
 768:Drivers/STM32F7xx_HAL_Driver/Src/stm32f7xx_hal_rcc_ex.c ****   PeriphClkInit->Clk48ClockSelection = __HAL_RCC_GET_CLK48_SOURCE();
 998              		.loc 1 768 0
 999 011c D3F89020 		ldr	r2, [r3, #144]
 1000 0120 02F00062 		and	r2, r2, #134217728
ARM GAS  /tmp/cciW4iGq.s 			page 33


 1001 0124 C267     		str	r2, [r0, #124]
 769:Drivers/STM32F7xx_HAL_Driver/Src/stm32f7xx_hal_rcc_ex.c **** 
 770:Drivers/STM32F7xx_HAL_Driver/Src/stm32f7xx_hal_rcc_ex.c ****   /* Get the SDMMC1 clock configuration -----------------------------------------------*/
 771:Drivers/STM32F7xx_HAL_Driver/Src/stm32f7xx_hal_rcc_ex.c ****   PeriphClkInit->Sdmmc1ClockSelection = __HAL_RCC_GET_SDMMC1_SOURCE();
 1002              		.loc 1 771 0
 1003 0126 D3F89020 		ldr	r2, [r3, #144]
 1004 012a 02F08052 		and	r2, r2, #268435456
 1005 012e C0F88020 		str	r2, [r0, #128]
 772:Drivers/STM32F7xx_HAL_Driver/Src/stm32f7xx_hal_rcc_ex.c **** 
 773:Drivers/STM32F7xx_HAL_Driver/Src/stm32f7xx_hal_rcc_ex.c **** #if defined (STM32F765xx) || defined (STM32F767xx) || defined (STM32F769xx) || defined (STM32F777xx
 774:Drivers/STM32F7xx_HAL_Driver/Src/stm32f7xx_hal_rcc_ex.c ****   /* Get the SDMMC2 clock configuration -----------------------------------------------*/
 775:Drivers/STM32F7xx_HAL_Driver/Src/stm32f7xx_hal_rcc_ex.c ****   PeriphClkInit->Sdmmc2ClockSelection = __HAL_RCC_GET_SDMMC2_SOURCE();
 776:Drivers/STM32F7xx_HAL_Driver/Src/stm32f7xx_hal_rcc_ex.c **** 
 777:Drivers/STM32F7xx_HAL_Driver/Src/stm32f7xx_hal_rcc_ex.c ****   /* Get the DFSDM clock configuration -----------------------------------------------*/
 778:Drivers/STM32F7xx_HAL_Driver/Src/stm32f7xx_hal_rcc_ex.c ****   PeriphClkInit->Dfsdm1ClockSelection = __HAL_RCC_GET_DFSDM1_SOURCE();
 779:Drivers/STM32F7xx_HAL_Driver/Src/stm32f7xx_hal_rcc_ex.c **** 
 780:Drivers/STM32F7xx_HAL_Driver/Src/stm32f7xx_hal_rcc_ex.c ****   /* Get the DFSDM AUDIO clock configuration -----------------------------------------------*/
 781:Drivers/STM32F7xx_HAL_Driver/Src/stm32f7xx_hal_rcc_ex.c ****   PeriphClkInit->Dfsdm1AudioClockSelection = __HAL_RCC_GET_DFSDM1AUDIO_SOURCE();
 782:Drivers/STM32F7xx_HAL_Driver/Src/stm32f7xx_hal_rcc_ex.c **** #endif /* STM32F767xx || STM32F769xx || STM32F777xx || STM32F779xx */
 783:Drivers/STM32F7xx_HAL_Driver/Src/stm32f7xx_hal_rcc_ex.c **** 
 784:Drivers/STM32F7xx_HAL_Driver/Src/stm32f7xx_hal_rcc_ex.c ****   /* Get the RTC Clock configuration -----------------------------------------------*/
 785:Drivers/STM32F7xx_HAL_Driver/Src/stm32f7xx_hal_rcc_ex.c ****   tempreg = (RCC->CFGR & RCC_CFGR_RTCPRE);
 1006              		.loc 1 785 0
 1007 0132 9968     		ldr	r1, [r3, #8]
 1008 0134 01F4F811 		and	r1, r1, #2031616
 1009              	.LVL79:
 786:Drivers/STM32F7xx_HAL_Driver/Src/stm32f7xx_hal_rcc_ex.c ****   PeriphClkInit->RTCClockSelection = (uint32_t)((tempreg) | (RCC->BDCR & RCC_BDCR_RTCSEL));
 1010              		.loc 1 786 0
 1011 0138 1A6F     		ldr	r2, [r3, #112]
 1012 013a 02F44072 		and	r2, r2, #768
 1013 013e 0A43     		orrs	r2, r2, r1
 1014 0140 0263     		str	r2, [r0, #48]
 787:Drivers/STM32F7xx_HAL_Driver/Src/stm32f7xx_hal_rcc_ex.c **** 
 788:Drivers/STM32F7xx_HAL_Driver/Src/stm32f7xx_hal_rcc_ex.c ****   /* Get the TIM Prescaler configuration --------------------------------------------*/
 789:Drivers/STM32F7xx_HAL_Driver/Src/stm32f7xx_hal_rcc_ex.c ****   if ((RCC->DCKCFGR1 & RCC_DCKCFGR1_TIMPRE) == RESET)
 1015              		.loc 1 789 0
 1016 0142 D3F88C30 		ldr	r3, [r3, #140]
 1017 0146 13F0807F 		tst	r3, #16777216
 1018 014a 03D0     		beq	.L93
 790:Drivers/STM32F7xx_HAL_Driver/Src/stm32f7xx_hal_rcc_ex.c ****   {
 791:Drivers/STM32F7xx_HAL_Driver/Src/stm32f7xx_hal_rcc_ex.c ****     PeriphClkInit->TIMPresSelection = RCC_TIMPRES_DESACTIVATED;
 792:Drivers/STM32F7xx_HAL_Driver/Src/stm32f7xx_hal_rcc_ex.c ****   }
 793:Drivers/STM32F7xx_HAL_Driver/Src/stm32f7xx_hal_rcc_ex.c ****   else
 794:Drivers/STM32F7xx_HAL_Driver/Src/stm32f7xx_hal_rcc_ex.c ****   {
 795:Drivers/STM32F7xx_HAL_Driver/Src/stm32f7xx_hal_rcc_ex.c ****     PeriphClkInit->TIMPresSelection = RCC_TIMPRES_ACTIVATED;
 1019              		.loc 1 795 0
 1020 014c 4FF08073 		mov	r3, #16777216
 1021 0150 8363     		str	r3, [r0, #56]
 796:Drivers/STM32F7xx_HAL_Driver/Src/stm32f7xx_hal_rcc_ex.c ****   }
 797:Drivers/STM32F7xx_HAL_Driver/Src/stm32f7xx_hal_rcc_ex.c **** }
 1022              		.loc 1 797 0
 1023 0152 7047     		bx	lr
 1024              	.L93:
 791:Drivers/STM32F7xx_HAL_Driver/Src/stm32f7xx_hal_rcc_ex.c ****   }
 1025              		.loc 1 791 0
 1026 0154 0023     		movs	r3, #0
 1027 0156 8363     		str	r3, [r0, #56]
ARM GAS  /tmp/cciW4iGq.s 			page 34


 1028 0158 7047     		bx	lr
 1029              	.L95:
 1030 015a 00BF     		.align	2
 1031              	.L94:
 1032 015c F1FFFF00 		.word	16777201
 1033 0160 00380240 		.word	1073887232
 1034              		.cfi_endproc
 1035              	.LFE142:
 1037              		.section	.text.HAL_RCCEx_GetPeriphCLKFreq,"ax",%progbits
 1038              		.align	1
 1039              		.global	HAL_RCCEx_GetPeriphCLKFreq
 1040              		.syntax unified
 1041              		.thumb
 1042              		.thumb_func
 1043              		.fpu fpv5-sp-d16
 1045              	HAL_RCCEx_GetPeriphCLKFreq:
 1046              	.LFB143:
 798:Drivers/STM32F7xx_HAL_Driver/Src/stm32f7xx_hal_rcc_ex.c **** #endif /* STM32F745xx || STM32F746xx || STM32F756xx || STM32F765xx || STM32F767xx || STM32F769xx ||
 799:Drivers/STM32F7xx_HAL_Driver/Src/stm32f7xx_hal_rcc_ex.c **** 
 800:Drivers/STM32F7xx_HAL_Driver/Src/stm32f7xx_hal_rcc_ex.c **** #if defined (STM32F722xx) || defined (STM32F723xx) || defined (STM32F732xx) || defined (STM32F733xx
 801:Drivers/STM32F7xx_HAL_Driver/Src/stm32f7xx_hal_rcc_ex.c **** /**
 802:Drivers/STM32F7xx_HAL_Driver/Src/stm32f7xx_hal_rcc_ex.c ****   * @brief  Initializes the RCC extended peripherals clocks according to the specified
 803:Drivers/STM32F7xx_HAL_Driver/Src/stm32f7xx_hal_rcc_ex.c ****   *         parameters in the RCC_PeriphCLKInitTypeDef.
 804:Drivers/STM32F7xx_HAL_Driver/Src/stm32f7xx_hal_rcc_ex.c ****   * @param  PeriphClkInit pointer to an RCC_PeriphCLKInitTypeDef structure that
 805:Drivers/STM32F7xx_HAL_Driver/Src/stm32f7xx_hal_rcc_ex.c ****   *         contains the configuration information for the Extended Peripherals
 806:Drivers/STM32F7xx_HAL_Driver/Src/stm32f7xx_hal_rcc_ex.c ****   *         clocks(I2S, SAI, RTC, TIM, UARTs, USARTs, LTPIM, SDMMC...).
 807:Drivers/STM32F7xx_HAL_Driver/Src/stm32f7xx_hal_rcc_ex.c ****   *
 808:Drivers/STM32F7xx_HAL_Driver/Src/stm32f7xx_hal_rcc_ex.c ****   * @note   Care must be taken when HAL_RCCEx_PeriphCLKConfig() is used to select
 809:Drivers/STM32F7xx_HAL_Driver/Src/stm32f7xx_hal_rcc_ex.c ****   *         the RTC clock source; in this case the Backup domain will be reset in
 810:Drivers/STM32F7xx_HAL_Driver/Src/stm32f7xx_hal_rcc_ex.c ****   *         order to modify the RTC Clock source, as consequence RTC registers (including
 811:Drivers/STM32F7xx_HAL_Driver/Src/stm32f7xx_hal_rcc_ex.c ****   *         the backup registers) are set to their reset values.
 812:Drivers/STM32F7xx_HAL_Driver/Src/stm32f7xx_hal_rcc_ex.c ****   *
 813:Drivers/STM32F7xx_HAL_Driver/Src/stm32f7xx_hal_rcc_ex.c ****   * @retval HAL status
 814:Drivers/STM32F7xx_HAL_Driver/Src/stm32f7xx_hal_rcc_ex.c ****   */
 815:Drivers/STM32F7xx_HAL_Driver/Src/stm32f7xx_hal_rcc_ex.c **** HAL_StatusTypeDef HAL_RCCEx_PeriphCLKConfig(RCC_PeriphCLKInitTypeDef  *PeriphClkInit)
 816:Drivers/STM32F7xx_HAL_Driver/Src/stm32f7xx_hal_rcc_ex.c **** {
 817:Drivers/STM32F7xx_HAL_Driver/Src/stm32f7xx_hal_rcc_ex.c ****   uint32_t tickstart = 0;
 818:Drivers/STM32F7xx_HAL_Driver/Src/stm32f7xx_hal_rcc_ex.c ****   uint32_t tmpreg0 = 0;
 819:Drivers/STM32F7xx_HAL_Driver/Src/stm32f7xx_hal_rcc_ex.c ****   uint32_t plli2sused = 0;
 820:Drivers/STM32F7xx_HAL_Driver/Src/stm32f7xx_hal_rcc_ex.c ****   uint32_t pllsaiused = 0;
 821:Drivers/STM32F7xx_HAL_Driver/Src/stm32f7xx_hal_rcc_ex.c **** 
 822:Drivers/STM32F7xx_HAL_Driver/Src/stm32f7xx_hal_rcc_ex.c ****   /* Check the parameters */
 823:Drivers/STM32F7xx_HAL_Driver/Src/stm32f7xx_hal_rcc_ex.c ****   assert_param(IS_RCC_PERIPHCLOCK(PeriphClkInit->PeriphClockSelection));
 824:Drivers/STM32F7xx_HAL_Driver/Src/stm32f7xx_hal_rcc_ex.c **** 
 825:Drivers/STM32F7xx_HAL_Driver/Src/stm32f7xx_hal_rcc_ex.c ****   /*----------------------------------- I2S configuration ----------------------------------*/
 826:Drivers/STM32F7xx_HAL_Driver/Src/stm32f7xx_hal_rcc_ex.c ****   if(((PeriphClkInit->PeriphClockSelection) & RCC_PERIPHCLK_I2S) == (RCC_PERIPHCLK_I2S))
 827:Drivers/STM32F7xx_HAL_Driver/Src/stm32f7xx_hal_rcc_ex.c ****   {
 828:Drivers/STM32F7xx_HAL_Driver/Src/stm32f7xx_hal_rcc_ex.c ****     /* Check the parameters */
 829:Drivers/STM32F7xx_HAL_Driver/Src/stm32f7xx_hal_rcc_ex.c ****     assert_param(IS_RCC_I2SCLKSOURCE(PeriphClkInit->I2sClockSelection));
 830:Drivers/STM32F7xx_HAL_Driver/Src/stm32f7xx_hal_rcc_ex.c **** 
 831:Drivers/STM32F7xx_HAL_Driver/Src/stm32f7xx_hal_rcc_ex.c ****     /* Configure I2S Clock source */
 832:Drivers/STM32F7xx_HAL_Driver/Src/stm32f7xx_hal_rcc_ex.c ****     __HAL_RCC_I2S_CONFIG(PeriphClkInit->I2sClockSelection);
 833:Drivers/STM32F7xx_HAL_Driver/Src/stm32f7xx_hal_rcc_ex.c **** 
 834:Drivers/STM32F7xx_HAL_Driver/Src/stm32f7xx_hal_rcc_ex.c ****     /* Enable the PLLI2S when it's used as clock source for I2S */
 835:Drivers/STM32F7xx_HAL_Driver/Src/stm32f7xx_hal_rcc_ex.c ****     if(PeriphClkInit->I2sClockSelection == RCC_I2SCLKSOURCE_PLLI2S)
 836:Drivers/STM32F7xx_HAL_Driver/Src/stm32f7xx_hal_rcc_ex.c ****     {
 837:Drivers/STM32F7xx_HAL_Driver/Src/stm32f7xx_hal_rcc_ex.c ****       plli2sused = 1;
ARM GAS  /tmp/cciW4iGq.s 			page 35


 838:Drivers/STM32F7xx_HAL_Driver/Src/stm32f7xx_hal_rcc_ex.c ****     }
 839:Drivers/STM32F7xx_HAL_Driver/Src/stm32f7xx_hal_rcc_ex.c ****   }
 840:Drivers/STM32F7xx_HAL_Driver/Src/stm32f7xx_hal_rcc_ex.c **** 
 841:Drivers/STM32F7xx_HAL_Driver/Src/stm32f7xx_hal_rcc_ex.c ****   /*------------------------------------ SAI1 configuration --------------------------------------*
 842:Drivers/STM32F7xx_HAL_Driver/Src/stm32f7xx_hal_rcc_ex.c ****   if(((PeriphClkInit->PeriphClockSelection) & RCC_PERIPHCLK_SAI1) == (RCC_PERIPHCLK_SAI1))
 843:Drivers/STM32F7xx_HAL_Driver/Src/stm32f7xx_hal_rcc_ex.c ****   {
 844:Drivers/STM32F7xx_HAL_Driver/Src/stm32f7xx_hal_rcc_ex.c ****     /* Check the parameters */
 845:Drivers/STM32F7xx_HAL_Driver/Src/stm32f7xx_hal_rcc_ex.c ****     assert_param(IS_RCC_SAI1CLKSOURCE(PeriphClkInit->Sai1ClockSelection));
 846:Drivers/STM32F7xx_HAL_Driver/Src/stm32f7xx_hal_rcc_ex.c **** 
 847:Drivers/STM32F7xx_HAL_Driver/Src/stm32f7xx_hal_rcc_ex.c ****     /* Configure SAI1 Clock source */
 848:Drivers/STM32F7xx_HAL_Driver/Src/stm32f7xx_hal_rcc_ex.c ****     __HAL_RCC_SAI1_CONFIG(PeriphClkInit->Sai1ClockSelection);
 849:Drivers/STM32F7xx_HAL_Driver/Src/stm32f7xx_hal_rcc_ex.c ****     /* Enable the PLLI2S when it's used as clock source for SAI */
 850:Drivers/STM32F7xx_HAL_Driver/Src/stm32f7xx_hal_rcc_ex.c ****     if(PeriphClkInit->Sai1ClockSelection == RCC_SAI1CLKSOURCE_PLLI2S)
 851:Drivers/STM32F7xx_HAL_Driver/Src/stm32f7xx_hal_rcc_ex.c ****     {
 852:Drivers/STM32F7xx_HAL_Driver/Src/stm32f7xx_hal_rcc_ex.c ****       plli2sused = 1;
 853:Drivers/STM32F7xx_HAL_Driver/Src/stm32f7xx_hal_rcc_ex.c ****     }
 854:Drivers/STM32F7xx_HAL_Driver/Src/stm32f7xx_hal_rcc_ex.c ****     /* Enable the PLLSAI when it's used as clock source for SAI */
 855:Drivers/STM32F7xx_HAL_Driver/Src/stm32f7xx_hal_rcc_ex.c ****     if(PeriphClkInit->Sai1ClockSelection == RCC_SAI1CLKSOURCE_PLLSAI)
 856:Drivers/STM32F7xx_HAL_Driver/Src/stm32f7xx_hal_rcc_ex.c ****     {
 857:Drivers/STM32F7xx_HAL_Driver/Src/stm32f7xx_hal_rcc_ex.c ****       pllsaiused = 1;
 858:Drivers/STM32F7xx_HAL_Driver/Src/stm32f7xx_hal_rcc_ex.c ****     }
 859:Drivers/STM32F7xx_HAL_Driver/Src/stm32f7xx_hal_rcc_ex.c ****   }
 860:Drivers/STM32F7xx_HAL_Driver/Src/stm32f7xx_hal_rcc_ex.c **** 
 861:Drivers/STM32F7xx_HAL_Driver/Src/stm32f7xx_hal_rcc_ex.c ****   /*------------------------------------ SAI2 configuration --------------------------------------*
 862:Drivers/STM32F7xx_HAL_Driver/Src/stm32f7xx_hal_rcc_ex.c ****   if(((PeriphClkInit->PeriphClockSelection) & RCC_PERIPHCLK_SAI2) == (RCC_PERIPHCLK_SAI2))
 863:Drivers/STM32F7xx_HAL_Driver/Src/stm32f7xx_hal_rcc_ex.c ****   {
 864:Drivers/STM32F7xx_HAL_Driver/Src/stm32f7xx_hal_rcc_ex.c ****     /* Check the parameters */
 865:Drivers/STM32F7xx_HAL_Driver/Src/stm32f7xx_hal_rcc_ex.c ****     assert_param(IS_RCC_SAI2CLKSOURCE(PeriphClkInit->Sai2ClockSelection));
 866:Drivers/STM32F7xx_HAL_Driver/Src/stm32f7xx_hal_rcc_ex.c **** 
 867:Drivers/STM32F7xx_HAL_Driver/Src/stm32f7xx_hal_rcc_ex.c ****     /* Configure SAI2 Clock source */
 868:Drivers/STM32F7xx_HAL_Driver/Src/stm32f7xx_hal_rcc_ex.c ****     __HAL_RCC_SAI2_CONFIG(PeriphClkInit->Sai2ClockSelection);
 869:Drivers/STM32F7xx_HAL_Driver/Src/stm32f7xx_hal_rcc_ex.c **** 
 870:Drivers/STM32F7xx_HAL_Driver/Src/stm32f7xx_hal_rcc_ex.c ****     /* Enable the PLLI2S when it's used as clock source for SAI */
 871:Drivers/STM32F7xx_HAL_Driver/Src/stm32f7xx_hal_rcc_ex.c ****     if(PeriphClkInit->Sai2ClockSelection == RCC_SAI2CLKSOURCE_PLLI2S)
 872:Drivers/STM32F7xx_HAL_Driver/Src/stm32f7xx_hal_rcc_ex.c ****     {
 873:Drivers/STM32F7xx_HAL_Driver/Src/stm32f7xx_hal_rcc_ex.c ****       plli2sused = 1;
 874:Drivers/STM32F7xx_HAL_Driver/Src/stm32f7xx_hal_rcc_ex.c ****     }
 875:Drivers/STM32F7xx_HAL_Driver/Src/stm32f7xx_hal_rcc_ex.c ****     /* Enable the PLLSAI when it's used as clock source for SAI */
 876:Drivers/STM32F7xx_HAL_Driver/Src/stm32f7xx_hal_rcc_ex.c ****     if(PeriphClkInit->Sai2ClockSelection == RCC_SAI2CLKSOURCE_PLLSAI)
 877:Drivers/STM32F7xx_HAL_Driver/Src/stm32f7xx_hal_rcc_ex.c ****     {
 878:Drivers/STM32F7xx_HAL_Driver/Src/stm32f7xx_hal_rcc_ex.c ****       pllsaiused = 1;
 879:Drivers/STM32F7xx_HAL_Driver/Src/stm32f7xx_hal_rcc_ex.c ****     }
 880:Drivers/STM32F7xx_HAL_Driver/Src/stm32f7xx_hal_rcc_ex.c ****   }
 881:Drivers/STM32F7xx_HAL_Driver/Src/stm32f7xx_hal_rcc_ex.c **** 
 882:Drivers/STM32F7xx_HAL_Driver/Src/stm32f7xx_hal_rcc_ex.c ****   /*------------------------------------ RTC configuration --------------------------------------*/
 883:Drivers/STM32F7xx_HAL_Driver/Src/stm32f7xx_hal_rcc_ex.c ****   if(((PeriphClkInit->PeriphClockSelection) & RCC_PERIPHCLK_RTC) == (RCC_PERIPHCLK_RTC))
 884:Drivers/STM32F7xx_HAL_Driver/Src/stm32f7xx_hal_rcc_ex.c ****   {
 885:Drivers/STM32F7xx_HAL_Driver/Src/stm32f7xx_hal_rcc_ex.c ****     /* Check for RTC Parameters used to output RTCCLK */
 886:Drivers/STM32F7xx_HAL_Driver/Src/stm32f7xx_hal_rcc_ex.c ****     assert_param(IS_RCC_RTCCLKSOURCE(PeriphClkInit->RTCClockSelection));
 887:Drivers/STM32F7xx_HAL_Driver/Src/stm32f7xx_hal_rcc_ex.c **** 
 888:Drivers/STM32F7xx_HAL_Driver/Src/stm32f7xx_hal_rcc_ex.c ****     /* Enable Power Clock*/
 889:Drivers/STM32F7xx_HAL_Driver/Src/stm32f7xx_hal_rcc_ex.c ****     __HAL_RCC_PWR_CLK_ENABLE();
 890:Drivers/STM32F7xx_HAL_Driver/Src/stm32f7xx_hal_rcc_ex.c **** 
 891:Drivers/STM32F7xx_HAL_Driver/Src/stm32f7xx_hal_rcc_ex.c ****     /* Enable write access to Backup domain */
 892:Drivers/STM32F7xx_HAL_Driver/Src/stm32f7xx_hal_rcc_ex.c ****     PWR->CR1 |= PWR_CR1_DBP;
 893:Drivers/STM32F7xx_HAL_Driver/Src/stm32f7xx_hal_rcc_ex.c **** 
 894:Drivers/STM32F7xx_HAL_Driver/Src/stm32f7xx_hal_rcc_ex.c ****     /* Get Start Tick*/
ARM GAS  /tmp/cciW4iGq.s 			page 36


 895:Drivers/STM32F7xx_HAL_Driver/Src/stm32f7xx_hal_rcc_ex.c ****     tickstart = HAL_GetTick();
 896:Drivers/STM32F7xx_HAL_Driver/Src/stm32f7xx_hal_rcc_ex.c **** 
 897:Drivers/STM32F7xx_HAL_Driver/Src/stm32f7xx_hal_rcc_ex.c ****     /* Wait for Backup domain Write protection disable */
 898:Drivers/STM32F7xx_HAL_Driver/Src/stm32f7xx_hal_rcc_ex.c ****     while((PWR->CR1 & PWR_CR1_DBP) == RESET)
 899:Drivers/STM32F7xx_HAL_Driver/Src/stm32f7xx_hal_rcc_ex.c ****     {
 900:Drivers/STM32F7xx_HAL_Driver/Src/stm32f7xx_hal_rcc_ex.c ****       if((HAL_GetTick() - tickstart) > RCC_DBP_TIMEOUT_VALUE)
 901:Drivers/STM32F7xx_HAL_Driver/Src/stm32f7xx_hal_rcc_ex.c ****       {
 902:Drivers/STM32F7xx_HAL_Driver/Src/stm32f7xx_hal_rcc_ex.c ****         return HAL_TIMEOUT;
 903:Drivers/STM32F7xx_HAL_Driver/Src/stm32f7xx_hal_rcc_ex.c ****       }
 904:Drivers/STM32F7xx_HAL_Driver/Src/stm32f7xx_hal_rcc_ex.c ****     }
 905:Drivers/STM32F7xx_HAL_Driver/Src/stm32f7xx_hal_rcc_ex.c **** 
 906:Drivers/STM32F7xx_HAL_Driver/Src/stm32f7xx_hal_rcc_ex.c ****     /* Reset the Backup domain only if the RTC Clock source selection is modified */
 907:Drivers/STM32F7xx_HAL_Driver/Src/stm32f7xx_hal_rcc_ex.c ****     tmpreg0 = (RCC->BDCR & RCC_BDCR_RTCSEL);
 908:Drivers/STM32F7xx_HAL_Driver/Src/stm32f7xx_hal_rcc_ex.c **** 
 909:Drivers/STM32F7xx_HAL_Driver/Src/stm32f7xx_hal_rcc_ex.c ****     if((tmpreg0 != 0x00000000U) && (tmpreg0 != (PeriphClkInit->RTCClockSelection & RCC_BDCR_RTCSEL)
 910:Drivers/STM32F7xx_HAL_Driver/Src/stm32f7xx_hal_rcc_ex.c ****     {
 911:Drivers/STM32F7xx_HAL_Driver/Src/stm32f7xx_hal_rcc_ex.c ****       /* Store the content of BDCR register before the reset of Backup Domain */
 912:Drivers/STM32F7xx_HAL_Driver/Src/stm32f7xx_hal_rcc_ex.c ****       tmpreg0 = (RCC->BDCR & ~(RCC_BDCR_RTCSEL));
 913:Drivers/STM32F7xx_HAL_Driver/Src/stm32f7xx_hal_rcc_ex.c **** 
 914:Drivers/STM32F7xx_HAL_Driver/Src/stm32f7xx_hal_rcc_ex.c ****       /* RTC Clock selection can be changed only if the Backup Domain is reset */
 915:Drivers/STM32F7xx_HAL_Driver/Src/stm32f7xx_hal_rcc_ex.c ****       __HAL_RCC_BACKUPRESET_FORCE();
 916:Drivers/STM32F7xx_HAL_Driver/Src/stm32f7xx_hal_rcc_ex.c ****       __HAL_RCC_BACKUPRESET_RELEASE();
 917:Drivers/STM32F7xx_HAL_Driver/Src/stm32f7xx_hal_rcc_ex.c **** 
 918:Drivers/STM32F7xx_HAL_Driver/Src/stm32f7xx_hal_rcc_ex.c ****       /* Restore the Content of BDCR register */
 919:Drivers/STM32F7xx_HAL_Driver/Src/stm32f7xx_hal_rcc_ex.c ****       RCC->BDCR = tmpreg0;
 920:Drivers/STM32F7xx_HAL_Driver/Src/stm32f7xx_hal_rcc_ex.c **** 
 921:Drivers/STM32F7xx_HAL_Driver/Src/stm32f7xx_hal_rcc_ex.c ****       /* Wait for LSE reactivation if LSE was enable prior to Backup Domain reset */
 922:Drivers/STM32F7xx_HAL_Driver/Src/stm32f7xx_hal_rcc_ex.c ****       if (HAL_IS_BIT_SET(RCC->BDCR, RCC_BDCR_LSEON))
 923:Drivers/STM32F7xx_HAL_Driver/Src/stm32f7xx_hal_rcc_ex.c ****       {
 924:Drivers/STM32F7xx_HAL_Driver/Src/stm32f7xx_hal_rcc_ex.c ****         /* Get Start Tick*/
 925:Drivers/STM32F7xx_HAL_Driver/Src/stm32f7xx_hal_rcc_ex.c ****         tickstart = HAL_GetTick();
 926:Drivers/STM32F7xx_HAL_Driver/Src/stm32f7xx_hal_rcc_ex.c **** 
 927:Drivers/STM32F7xx_HAL_Driver/Src/stm32f7xx_hal_rcc_ex.c ****         /* Wait till LSE is ready */
 928:Drivers/STM32F7xx_HAL_Driver/Src/stm32f7xx_hal_rcc_ex.c ****         while(__HAL_RCC_GET_FLAG(RCC_FLAG_LSERDY) == RESET)
 929:Drivers/STM32F7xx_HAL_Driver/Src/stm32f7xx_hal_rcc_ex.c ****         {
 930:Drivers/STM32F7xx_HAL_Driver/Src/stm32f7xx_hal_rcc_ex.c ****           if((HAL_GetTick() - tickstart ) > RCC_LSE_TIMEOUT_VALUE)
 931:Drivers/STM32F7xx_HAL_Driver/Src/stm32f7xx_hal_rcc_ex.c ****           {
 932:Drivers/STM32F7xx_HAL_Driver/Src/stm32f7xx_hal_rcc_ex.c ****             return HAL_TIMEOUT;
 933:Drivers/STM32F7xx_HAL_Driver/Src/stm32f7xx_hal_rcc_ex.c ****           }
 934:Drivers/STM32F7xx_HAL_Driver/Src/stm32f7xx_hal_rcc_ex.c ****         }
 935:Drivers/STM32F7xx_HAL_Driver/Src/stm32f7xx_hal_rcc_ex.c ****       }
 936:Drivers/STM32F7xx_HAL_Driver/Src/stm32f7xx_hal_rcc_ex.c ****     }
 937:Drivers/STM32F7xx_HAL_Driver/Src/stm32f7xx_hal_rcc_ex.c ****     __HAL_RCC_RTC_CONFIG(PeriphClkInit->RTCClockSelection);
 938:Drivers/STM32F7xx_HAL_Driver/Src/stm32f7xx_hal_rcc_ex.c ****   }
 939:Drivers/STM32F7xx_HAL_Driver/Src/stm32f7xx_hal_rcc_ex.c **** 
 940:Drivers/STM32F7xx_HAL_Driver/Src/stm32f7xx_hal_rcc_ex.c ****   /*------------------------------------ TIM configuration --------------------------------------*/
 941:Drivers/STM32F7xx_HAL_Driver/Src/stm32f7xx_hal_rcc_ex.c ****   if(((PeriphClkInit->PeriphClockSelection) & RCC_PERIPHCLK_TIM) == (RCC_PERIPHCLK_TIM))
 942:Drivers/STM32F7xx_HAL_Driver/Src/stm32f7xx_hal_rcc_ex.c ****   {
 943:Drivers/STM32F7xx_HAL_Driver/Src/stm32f7xx_hal_rcc_ex.c ****     /* Check the parameters */
 944:Drivers/STM32F7xx_HAL_Driver/Src/stm32f7xx_hal_rcc_ex.c ****     assert_param(IS_RCC_TIMPRES(PeriphClkInit->TIMPresSelection));
 945:Drivers/STM32F7xx_HAL_Driver/Src/stm32f7xx_hal_rcc_ex.c **** 
 946:Drivers/STM32F7xx_HAL_Driver/Src/stm32f7xx_hal_rcc_ex.c ****     /* Configure Timer Prescaler */
 947:Drivers/STM32F7xx_HAL_Driver/Src/stm32f7xx_hal_rcc_ex.c ****     __HAL_RCC_TIMCLKPRESCALER(PeriphClkInit->TIMPresSelection);
 948:Drivers/STM32F7xx_HAL_Driver/Src/stm32f7xx_hal_rcc_ex.c ****   }
 949:Drivers/STM32F7xx_HAL_Driver/Src/stm32f7xx_hal_rcc_ex.c **** 
 950:Drivers/STM32F7xx_HAL_Driver/Src/stm32f7xx_hal_rcc_ex.c ****   /*-------------------------------------- I2C1 Configuration -----------------------------------*/
 951:Drivers/STM32F7xx_HAL_Driver/Src/stm32f7xx_hal_rcc_ex.c ****   if(((PeriphClkInit->PeriphClockSelection) & RCC_PERIPHCLK_I2C1) == RCC_PERIPHCLK_I2C1)
ARM GAS  /tmp/cciW4iGq.s 			page 37


 952:Drivers/STM32F7xx_HAL_Driver/Src/stm32f7xx_hal_rcc_ex.c ****   {
 953:Drivers/STM32F7xx_HAL_Driver/Src/stm32f7xx_hal_rcc_ex.c ****     /* Check the parameters */
 954:Drivers/STM32F7xx_HAL_Driver/Src/stm32f7xx_hal_rcc_ex.c ****     assert_param(IS_RCC_I2C1CLKSOURCE(PeriphClkInit->I2c1ClockSelection));
 955:Drivers/STM32F7xx_HAL_Driver/Src/stm32f7xx_hal_rcc_ex.c **** 
 956:Drivers/STM32F7xx_HAL_Driver/Src/stm32f7xx_hal_rcc_ex.c ****     /* Configure the I2C1 clock source */
 957:Drivers/STM32F7xx_HAL_Driver/Src/stm32f7xx_hal_rcc_ex.c ****     __HAL_RCC_I2C1_CONFIG(PeriphClkInit->I2c1ClockSelection);
 958:Drivers/STM32F7xx_HAL_Driver/Src/stm32f7xx_hal_rcc_ex.c ****   }
 959:Drivers/STM32F7xx_HAL_Driver/Src/stm32f7xx_hal_rcc_ex.c **** 
 960:Drivers/STM32F7xx_HAL_Driver/Src/stm32f7xx_hal_rcc_ex.c ****   /*-------------------------------------- I2C2 Configuration -----------------------------------*/
 961:Drivers/STM32F7xx_HAL_Driver/Src/stm32f7xx_hal_rcc_ex.c ****   if(((PeriphClkInit->PeriphClockSelection) & RCC_PERIPHCLK_I2C2) == RCC_PERIPHCLK_I2C2)
 962:Drivers/STM32F7xx_HAL_Driver/Src/stm32f7xx_hal_rcc_ex.c ****   {
 963:Drivers/STM32F7xx_HAL_Driver/Src/stm32f7xx_hal_rcc_ex.c ****     /* Check the parameters */
 964:Drivers/STM32F7xx_HAL_Driver/Src/stm32f7xx_hal_rcc_ex.c ****     assert_param(IS_RCC_I2C2CLKSOURCE(PeriphClkInit->I2c2ClockSelection));
 965:Drivers/STM32F7xx_HAL_Driver/Src/stm32f7xx_hal_rcc_ex.c **** 
 966:Drivers/STM32F7xx_HAL_Driver/Src/stm32f7xx_hal_rcc_ex.c ****     /* Configure the I2C2 clock source */
 967:Drivers/STM32F7xx_HAL_Driver/Src/stm32f7xx_hal_rcc_ex.c ****     __HAL_RCC_I2C2_CONFIG(PeriphClkInit->I2c2ClockSelection);
 968:Drivers/STM32F7xx_HAL_Driver/Src/stm32f7xx_hal_rcc_ex.c ****   }
 969:Drivers/STM32F7xx_HAL_Driver/Src/stm32f7xx_hal_rcc_ex.c **** 
 970:Drivers/STM32F7xx_HAL_Driver/Src/stm32f7xx_hal_rcc_ex.c ****   /*-------------------------------------- I2C3 Configuration -----------------------------------*/
 971:Drivers/STM32F7xx_HAL_Driver/Src/stm32f7xx_hal_rcc_ex.c ****   if(((PeriphClkInit->PeriphClockSelection) & RCC_PERIPHCLK_I2C3) == RCC_PERIPHCLK_I2C3)
 972:Drivers/STM32F7xx_HAL_Driver/Src/stm32f7xx_hal_rcc_ex.c ****   {
 973:Drivers/STM32F7xx_HAL_Driver/Src/stm32f7xx_hal_rcc_ex.c ****     /* Check the parameters */
 974:Drivers/STM32F7xx_HAL_Driver/Src/stm32f7xx_hal_rcc_ex.c ****     assert_param(IS_RCC_I2C3CLKSOURCE(PeriphClkInit->I2c3ClockSelection));
 975:Drivers/STM32F7xx_HAL_Driver/Src/stm32f7xx_hal_rcc_ex.c **** 
 976:Drivers/STM32F7xx_HAL_Driver/Src/stm32f7xx_hal_rcc_ex.c ****     /* Configure the I2C3 clock source */
 977:Drivers/STM32F7xx_HAL_Driver/Src/stm32f7xx_hal_rcc_ex.c ****     __HAL_RCC_I2C3_CONFIG(PeriphClkInit->I2c3ClockSelection);
 978:Drivers/STM32F7xx_HAL_Driver/Src/stm32f7xx_hal_rcc_ex.c ****   }
 979:Drivers/STM32F7xx_HAL_Driver/Src/stm32f7xx_hal_rcc_ex.c **** 
 980:Drivers/STM32F7xx_HAL_Driver/Src/stm32f7xx_hal_rcc_ex.c ****   /*-------------------------------------- USART1 Configuration -----------------------------------
 981:Drivers/STM32F7xx_HAL_Driver/Src/stm32f7xx_hal_rcc_ex.c ****   if(((PeriphClkInit->PeriphClockSelection) & RCC_PERIPHCLK_USART1) == RCC_PERIPHCLK_USART1)
 982:Drivers/STM32F7xx_HAL_Driver/Src/stm32f7xx_hal_rcc_ex.c ****   {
 983:Drivers/STM32F7xx_HAL_Driver/Src/stm32f7xx_hal_rcc_ex.c ****     /* Check the parameters */
 984:Drivers/STM32F7xx_HAL_Driver/Src/stm32f7xx_hal_rcc_ex.c ****     assert_param(IS_RCC_USART1CLKSOURCE(PeriphClkInit->Usart1ClockSelection));
 985:Drivers/STM32F7xx_HAL_Driver/Src/stm32f7xx_hal_rcc_ex.c **** 
 986:Drivers/STM32F7xx_HAL_Driver/Src/stm32f7xx_hal_rcc_ex.c ****     /* Configure the USART1 clock source */
 987:Drivers/STM32F7xx_HAL_Driver/Src/stm32f7xx_hal_rcc_ex.c ****     __HAL_RCC_USART1_CONFIG(PeriphClkInit->Usart1ClockSelection);
 988:Drivers/STM32F7xx_HAL_Driver/Src/stm32f7xx_hal_rcc_ex.c ****   }
 989:Drivers/STM32F7xx_HAL_Driver/Src/stm32f7xx_hal_rcc_ex.c **** 
 990:Drivers/STM32F7xx_HAL_Driver/Src/stm32f7xx_hal_rcc_ex.c ****   /*-------------------------------------- USART2 Configuration -----------------------------------
 991:Drivers/STM32F7xx_HAL_Driver/Src/stm32f7xx_hal_rcc_ex.c ****   if(((PeriphClkInit->PeriphClockSelection) & RCC_PERIPHCLK_USART2) == RCC_PERIPHCLK_USART2)
 992:Drivers/STM32F7xx_HAL_Driver/Src/stm32f7xx_hal_rcc_ex.c ****   {
 993:Drivers/STM32F7xx_HAL_Driver/Src/stm32f7xx_hal_rcc_ex.c ****     /* Check the parameters */
 994:Drivers/STM32F7xx_HAL_Driver/Src/stm32f7xx_hal_rcc_ex.c ****     assert_param(IS_RCC_USART2CLKSOURCE(PeriphClkInit->Usart2ClockSelection));
 995:Drivers/STM32F7xx_HAL_Driver/Src/stm32f7xx_hal_rcc_ex.c **** 
 996:Drivers/STM32F7xx_HAL_Driver/Src/stm32f7xx_hal_rcc_ex.c ****     /* Configure the USART2 clock source */
 997:Drivers/STM32F7xx_HAL_Driver/Src/stm32f7xx_hal_rcc_ex.c ****     __HAL_RCC_USART2_CONFIG(PeriphClkInit->Usart2ClockSelection);
 998:Drivers/STM32F7xx_HAL_Driver/Src/stm32f7xx_hal_rcc_ex.c ****   }
 999:Drivers/STM32F7xx_HAL_Driver/Src/stm32f7xx_hal_rcc_ex.c **** 
1000:Drivers/STM32F7xx_HAL_Driver/Src/stm32f7xx_hal_rcc_ex.c ****   /*-------------------------------------- USART3 Configuration -----------------------------------
1001:Drivers/STM32F7xx_HAL_Driver/Src/stm32f7xx_hal_rcc_ex.c ****   if(((PeriphClkInit->PeriphClockSelection) & RCC_PERIPHCLK_USART3) == RCC_PERIPHCLK_USART3)
1002:Drivers/STM32F7xx_HAL_Driver/Src/stm32f7xx_hal_rcc_ex.c ****   {
1003:Drivers/STM32F7xx_HAL_Driver/Src/stm32f7xx_hal_rcc_ex.c ****     /* Check the parameters */
1004:Drivers/STM32F7xx_HAL_Driver/Src/stm32f7xx_hal_rcc_ex.c ****     assert_param(IS_RCC_USART3CLKSOURCE(PeriphClkInit->Usart3ClockSelection));
1005:Drivers/STM32F7xx_HAL_Driver/Src/stm32f7xx_hal_rcc_ex.c **** 
1006:Drivers/STM32F7xx_HAL_Driver/Src/stm32f7xx_hal_rcc_ex.c ****     /* Configure the USART3 clock source */
1007:Drivers/STM32F7xx_HAL_Driver/Src/stm32f7xx_hal_rcc_ex.c ****     __HAL_RCC_USART3_CONFIG(PeriphClkInit->Usart3ClockSelection);
1008:Drivers/STM32F7xx_HAL_Driver/Src/stm32f7xx_hal_rcc_ex.c ****   }
ARM GAS  /tmp/cciW4iGq.s 			page 38


1009:Drivers/STM32F7xx_HAL_Driver/Src/stm32f7xx_hal_rcc_ex.c **** 
1010:Drivers/STM32F7xx_HAL_Driver/Src/stm32f7xx_hal_rcc_ex.c ****   /*-------------------------------------- UART4 Configuration -----------------------------------*
1011:Drivers/STM32F7xx_HAL_Driver/Src/stm32f7xx_hal_rcc_ex.c ****   if(((PeriphClkInit->PeriphClockSelection) & RCC_PERIPHCLK_UART4) == RCC_PERIPHCLK_UART4)
1012:Drivers/STM32F7xx_HAL_Driver/Src/stm32f7xx_hal_rcc_ex.c ****   {
1013:Drivers/STM32F7xx_HAL_Driver/Src/stm32f7xx_hal_rcc_ex.c ****     /* Check the parameters */
1014:Drivers/STM32F7xx_HAL_Driver/Src/stm32f7xx_hal_rcc_ex.c ****     assert_param(IS_RCC_UART4CLKSOURCE(PeriphClkInit->Uart4ClockSelection));
1015:Drivers/STM32F7xx_HAL_Driver/Src/stm32f7xx_hal_rcc_ex.c **** 
1016:Drivers/STM32F7xx_HAL_Driver/Src/stm32f7xx_hal_rcc_ex.c ****     /* Configure the UART4 clock source */
1017:Drivers/STM32F7xx_HAL_Driver/Src/stm32f7xx_hal_rcc_ex.c ****     __HAL_RCC_UART4_CONFIG(PeriphClkInit->Uart4ClockSelection);
1018:Drivers/STM32F7xx_HAL_Driver/Src/stm32f7xx_hal_rcc_ex.c ****   }
1019:Drivers/STM32F7xx_HAL_Driver/Src/stm32f7xx_hal_rcc_ex.c **** 
1020:Drivers/STM32F7xx_HAL_Driver/Src/stm32f7xx_hal_rcc_ex.c ****   /*-------------------------------------- UART5 Configuration -----------------------------------*
1021:Drivers/STM32F7xx_HAL_Driver/Src/stm32f7xx_hal_rcc_ex.c ****   if(((PeriphClkInit->PeriphClockSelection) & RCC_PERIPHCLK_UART5) == RCC_PERIPHCLK_UART5)
1022:Drivers/STM32F7xx_HAL_Driver/Src/stm32f7xx_hal_rcc_ex.c ****   {
1023:Drivers/STM32F7xx_HAL_Driver/Src/stm32f7xx_hal_rcc_ex.c ****     /* Check the parameters */
1024:Drivers/STM32F7xx_HAL_Driver/Src/stm32f7xx_hal_rcc_ex.c ****     assert_param(IS_RCC_UART5CLKSOURCE(PeriphClkInit->Uart5ClockSelection));
1025:Drivers/STM32F7xx_HAL_Driver/Src/stm32f7xx_hal_rcc_ex.c **** 
1026:Drivers/STM32F7xx_HAL_Driver/Src/stm32f7xx_hal_rcc_ex.c ****     /* Configure the UART5 clock source */
1027:Drivers/STM32F7xx_HAL_Driver/Src/stm32f7xx_hal_rcc_ex.c ****     __HAL_RCC_UART5_CONFIG(PeriphClkInit->Uart5ClockSelection);
1028:Drivers/STM32F7xx_HAL_Driver/Src/stm32f7xx_hal_rcc_ex.c ****   }
1029:Drivers/STM32F7xx_HAL_Driver/Src/stm32f7xx_hal_rcc_ex.c **** 
1030:Drivers/STM32F7xx_HAL_Driver/Src/stm32f7xx_hal_rcc_ex.c ****   /*-------------------------------------- USART6 Configuration -----------------------------------
1031:Drivers/STM32F7xx_HAL_Driver/Src/stm32f7xx_hal_rcc_ex.c ****   if(((PeriphClkInit->PeriphClockSelection) & RCC_PERIPHCLK_USART6) == RCC_PERIPHCLK_USART6)
1032:Drivers/STM32F7xx_HAL_Driver/Src/stm32f7xx_hal_rcc_ex.c ****   {
1033:Drivers/STM32F7xx_HAL_Driver/Src/stm32f7xx_hal_rcc_ex.c ****     /* Check the parameters */
1034:Drivers/STM32F7xx_HAL_Driver/Src/stm32f7xx_hal_rcc_ex.c ****     assert_param(IS_RCC_USART6CLKSOURCE(PeriphClkInit->Usart6ClockSelection));
1035:Drivers/STM32F7xx_HAL_Driver/Src/stm32f7xx_hal_rcc_ex.c **** 
1036:Drivers/STM32F7xx_HAL_Driver/Src/stm32f7xx_hal_rcc_ex.c ****     /* Configure the USART6 clock source */
1037:Drivers/STM32F7xx_HAL_Driver/Src/stm32f7xx_hal_rcc_ex.c ****     __HAL_RCC_USART6_CONFIG(PeriphClkInit->Usart6ClockSelection);
1038:Drivers/STM32F7xx_HAL_Driver/Src/stm32f7xx_hal_rcc_ex.c ****   }
1039:Drivers/STM32F7xx_HAL_Driver/Src/stm32f7xx_hal_rcc_ex.c **** 
1040:Drivers/STM32F7xx_HAL_Driver/Src/stm32f7xx_hal_rcc_ex.c ****   /*-------------------------------------- UART7 Configuration -----------------------------------*
1041:Drivers/STM32F7xx_HAL_Driver/Src/stm32f7xx_hal_rcc_ex.c ****   if(((PeriphClkInit->PeriphClockSelection) & RCC_PERIPHCLK_UART7) == RCC_PERIPHCLK_UART7)
1042:Drivers/STM32F7xx_HAL_Driver/Src/stm32f7xx_hal_rcc_ex.c ****   {
1043:Drivers/STM32F7xx_HAL_Driver/Src/stm32f7xx_hal_rcc_ex.c ****     /* Check the parameters */
1044:Drivers/STM32F7xx_HAL_Driver/Src/stm32f7xx_hal_rcc_ex.c ****     assert_param(IS_RCC_UART7CLKSOURCE(PeriphClkInit->Uart7ClockSelection));
1045:Drivers/STM32F7xx_HAL_Driver/Src/stm32f7xx_hal_rcc_ex.c **** 
1046:Drivers/STM32F7xx_HAL_Driver/Src/stm32f7xx_hal_rcc_ex.c ****     /* Configure the UART7 clock source */
1047:Drivers/STM32F7xx_HAL_Driver/Src/stm32f7xx_hal_rcc_ex.c ****     __HAL_RCC_UART7_CONFIG(PeriphClkInit->Uart7ClockSelection);
1048:Drivers/STM32F7xx_HAL_Driver/Src/stm32f7xx_hal_rcc_ex.c ****   }
1049:Drivers/STM32F7xx_HAL_Driver/Src/stm32f7xx_hal_rcc_ex.c **** 
1050:Drivers/STM32F7xx_HAL_Driver/Src/stm32f7xx_hal_rcc_ex.c ****   /*-------------------------------------- UART8 Configuration -----------------------------------*
1051:Drivers/STM32F7xx_HAL_Driver/Src/stm32f7xx_hal_rcc_ex.c ****   if(((PeriphClkInit->PeriphClockSelection) & RCC_PERIPHCLK_UART8) == RCC_PERIPHCLK_UART8)
1052:Drivers/STM32F7xx_HAL_Driver/Src/stm32f7xx_hal_rcc_ex.c ****   {
1053:Drivers/STM32F7xx_HAL_Driver/Src/stm32f7xx_hal_rcc_ex.c ****     /* Check the parameters */
1054:Drivers/STM32F7xx_HAL_Driver/Src/stm32f7xx_hal_rcc_ex.c ****     assert_param(IS_RCC_UART8CLKSOURCE(PeriphClkInit->Uart8ClockSelection));
1055:Drivers/STM32F7xx_HAL_Driver/Src/stm32f7xx_hal_rcc_ex.c **** 
1056:Drivers/STM32F7xx_HAL_Driver/Src/stm32f7xx_hal_rcc_ex.c ****     /* Configure the UART8 clock source */
1057:Drivers/STM32F7xx_HAL_Driver/Src/stm32f7xx_hal_rcc_ex.c ****     __HAL_RCC_UART8_CONFIG(PeriphClkInit->Uart8ClockSelection);
1058:Drivers/STM32F7xx_HAL_Driver/Src/stm32f7xx_hal_rcc_ex.c ****   }
1059:Drivers/STM32F7xx_HAL_Driver/Src/stm32f7xx_hal_rcc_ex.c **** 
1060:Drivers/STM32F7xx_HAL_Driver/Src/stm32f7xx_hal_rcc_ex.c ****   /*-------------------------------------- CK48 Configuration -----------------------------------*/
1061:Drivers/STM32F7xx_HAL_Driver/Src/stm32f7xx_hal_rcc_ex.c ****   if(((PeriphClkInit->PeriphClockSelection) & RCC_PERIPHCLK_CLK48) == RCC_PERIPHCLK_CLK48)
1062:Drivers/STM32F7xx_HAL_Driver/Src/stm32f7xx_hal_rcc_ex.c ****   {
1063:Drivers/STM32F7xx_HAL_Driver/Src/stm32f7xx_hal_rcc_ex.c ****     /* Check the parameters */
1064:Drivers/STM32F7xx_HAL_Driver/Src/stm32f7xx_hal_rcc_ex.c ****     assert_param(IS_RCC_CLK48SOURCE(PeriphClkInit->Clk48ClockSelection));
1065:Drivers/STM32F7xx_HAL_Driver/Src/stm32f7xx_hal_rcc_ex.c **** 
ARM GAS  /tmp/cciW4iGq.s 			page 39


1066:Drivers/STM32F7xx_HAL_Driver/Src/stm32f7xx_hal_rcc_ex.c ****     /* Configure the CLK48 source */
1067:Drivers/STM32F7xx_HAL_Driver/Src/stm32f7xx_hal_rcc_ex.c ****     __HAL_RCC_CLK48_CONFIG(PeriphClkInit->Clk48ClockSelection);
1068:Drivers/STM32F7xx_HAL_Driver/Src/stm32f7xx_hal_rcc_ex.c **** 
1069:Drivers/STM32F7xx_HAL_Driver/Src/stm32f7xx_hal_rcc_ex.c ****     /* Enable the PLLSAI when it's used as clock source for CK48 */
1070:Drivers/STM32F7xx_HAL_Driver/Src/stm32f7xx_hal_rcc_ex.c ****     if(PeriphClkInit->Clk48ClockSelection == RCC_CLK48SOURCE_PLLSAIP)
1071:Drivers/STM32F7xx_HAL_Driver/Src/stm32f7xx_hal_rcc_ex.c ****     {
1072:Drivers/STM32F7xx_HAL_Driver/Src/stm32f7xx_hal_rcc_ex.c ****       pllsaiused = 1;
1073:Drivers/STM32F7xx_HAL_Driver/Src/stm32f7xx_hal_rcc_ex.c ****     }
1074:Drivers/STM32F7xx_HAL_Driver/Src/stm32f7xx_hal_rcc_ex.c ****   }
1075:Drivers/STM32F7xx_HAL_Driver/Src/stm32f7xx_hal_rcc_ex.c **** 
1076:Drivers/STM32F7xx_HAL_Driver/Src/stm32f7xx_hal_rcc_ex.c ****   /*-------------------------------------- LPTIM1 Configuration -----------------------------------
1077:Drivers/STM32F7xx_HAL_Driver/Src/stm32f7xx_hal_rcc_ex.c ****   if(((PeriphClkInit->PeriphClockSelection) & RCC_PERIPHCLK_LPTIM1) == RCC_PERIPHCLK_LPTIM1)
1078:Drivers/STM32F7xx_HAL_Driver/Src/stm32f7xx_hal_rcc_ex.c ****   {
1079:Drivers/STM32F7xx_HAL_Driver/Src/stm32f7xx_hal_rcc_ex.c ****     /* Check the parameters */
1080:Drivers/STM32F7xx_HAL_Driver/Src/stm32f7xx_hal_rcc_ex.c ****     assert_param(IS_RCC_LPTIM1CLK(PeriphClkInit->Lptim1ClockSelection));
1081:Drivers/STM32F7xx_HAL_Driver/Src/stm32f7xx_hal_rcc_ex.c **** 
1082:Drivers/STM32F7xx_HAL_Driver/Src/stm32f7xx_hal_rcc_ex.c ****     /* Configure the LTPIM1 clock source */
1083:Drivers/STM32F7xx_HAL_Driver/Src/stm32f7xx_hal_rcc_ex.c ****     __HAL_RCC_LPTIM1_CONFIG(PeriphClkInit->Lptim1ClockSelection);
1084:Drivers/STM32F7xx_HAL_Driver/Src/stm32f7xx_hal_rcc_ex.c ****    }
1085:Drivers/STM32F7xx_HAL_Driver/Src/stm32f7xx_hal_rcc_ex.c **** 
1086:Drivers/STM32F7xx_HAL_Driver/Src/stm32f7xx_hal_rcc_ex.c ****   /*------------------------------------- SDMMC1 Configuration ------------------------------------
1087:Drivers/STM32F7xx_HAL_Driver/Src/stm32f7xx_hal_rcc_ex.c ****   if(((PeriphClkInit->PeriphClockSelection) & RCC_PERIPHCLK_SDMMC1) == RCC_PERIPHCLK_SDMMC1)
1088:Drivers/STM32F7xx_HAL_Driver/Src/stm32f7xx_hal_rcc_ex.c ****   {
1089:Drivers/STM32F7xx_HAL_Driver/Src/stm32f7xx_hal_rcc_ex.c ****     /* Check the parameters */
1090:Drivers/STM32F7xx_HAL_Driver/Src/stm32f7xx_hal_rcc_ex.c ****     assert_param(IS_RCC_SDMMC1CLKSOURCE(PeriphClkInit->Sdmmc1ClockSelection));
1091:Drivers/STM32F7xx_HAL_Driver/Src/stm32f7xx_hal_rcc_ex.c **** 
1092:Drivers/STM32F7xx_HAL_Driver/Src/stm32f7xx_hal_rcc_ex.c ****     /* Configure the SDMMC1 clock source */
1093:Drivers/STM32F7xx_HAL_Driver/Src/stm32f7xx_hal_rcc_ex.c ****     __HAL_RCC_SDMMC1_CONFIG(PeriphClkInit->Sdmmc1ClockSelection);
1094:Drivers/STM32F7xx_HAL_Driver/Src/stm32f7xx_hal_rcc_ex.c ****   }
1095:Drivers/STM32F7xx_HAL_Driver/Src/stm32f7xx_hal_rcc_ex.c **** 
1096:Drivers/STM32F7xx_HAL_Driver/Src/stm32f7xx_hal_rcc_ex.c ****   /*------------------------------------- SDMMC2 Configuration ------------------------------------
1097:Drivers/STM32F7xx_HAL_Driver/Src/stm32f7xx_hal_rcc_ex.c ****   if(((PeriphClkInit->PeriphClockSelection) & RCC_PERIPHCLK_SDMMC2) == RCC_PERIPHCLK_SDMMC2)
1098:Drivers/STM32F7xx_HAL_Driver/Src/stm32f7xx_hal_rcc_ex.c ****   {
1099:Drivers/STM32F7xx_HAL_Driver/Src/stm32f7xx_hal_rcc_ex.c ****     /* Check the parameters */
1100:Drivers/STM32F7xx_HAL_Driver/Src/stm32f7xx_hal_rcc_ex.c ****     assert_param(IS_RCC_SDMMC2CLKSOURCE(PeriphClkInit->Sdmmc2ClockSelection));
1101:Drivers/STM32F7xx_HAL_Driver/Src/stm32f7xx_hal_rcc_ex.c **** 
1102:Drivers/STM32F7xx_HAL_Driver/Src/stm32f7xx_hal_rcc_ex.c ****     /* Configure the SDMMC2 clock source */
1103:Drivers/STM32F7xx_HAL_Driver/Src/stm32f7xx_hal_rcc_ex.c ****     __HAL_RCC_SDMMC2_CONFIG(PeriphClkInit->Sdmmc2ClockSelection);
1104:Drivers/STM32F7xx_HAL_Driver/Src/stm32f7xx_hal_rcc_ex.c ****   }
1105:Drivers/STM32F7xx_HAL_Driver/Src/stm32f7xx_hal_rcc_ex.c **** 
1106:Drivers/STM32F7xx_HAL_Driver/Src/stm32f7xx_hal_rcc_ex.c ****   /*-------------------------------------- PLLI2S Configuration ---------------------------------*/
1107:Drivers/STM32F7xx_HAL_Driver/Src/stm32f7xx_hal_rcc_ex.c ****   /* PLLI2S is configured when a peripheral will use it as source clock : SAI1, SAI2 or I2S */
1108:Drivers/STM32F7xx_HAL_Driver/Src/stm32f7xx_hal_rcc_ex.c ****   if((plli2sused == 1) || ((PeriphClkInit->PeriphClockSelection & RCC_PERIPHCLK_PLLI2S) == RCC_PERI
1109:Drivers/STM32F7xx_HAL_Driver/Src/stm32f7xx_hal_rcc_ex.c ****   {
1110:Drivers/STM32F7xx_HAL_Driver/Src/stm32f7xx_hal_rcc_ex.c ****     /* Disable the PLLI2S */
1111:Drivers/STM32F7xx_HAL_Driver/Src/stm32f7xx_hal_rcc_ex.c ****     __HAL_RCC_PLLI2S_DISABLE();
1112:Drivers/STM32F7xx_HAL_Driver/Src/stm32f7xx_hal_rcc_ex.c **** 
1113:Drivers/STM32F7xx_HAL_Driver/Src/stm32f7xx_hal_rcc_ex.c ****     /* Get Start Tick*/
1114:Drivers/STM32F7xx_HAL_Driver/Src/stm32f7xx_hal_rcc_ex.c ****     tickstart = HAL_GetTick();
1115:Drivers/STM32F7xx_HAL_Driver/Src/stm32f7xx_hal_rcc_ex.c **** 
1116:Drivers/STM32F7xx_HAL_Driver/Src/stm32f7xx_hal_rcc_ex.c ****     /* Wait till PLLI2S is disabled */
1117:Drivers/STM32F7xx_HAL_Driver/Src/stm32f7xx_hal_rcc_ex.c ****     while(__HAL_RCC_GET_FLAG(RCC_FLAG_PLLI2SRDY)  != RESET)
1118:Drivers/STM32F7xx_HAL_Driver/Src/stm32f7xx_hal_rcc_ex.c ****     {
1119:Drivers/STM32F7xx_HAL_Driver/Src/stm32f7xx_hal_rcc_ex.c ****       if((HAL_GetTick() - tickstart) > PLLI2S_TIMEOUT_VALUE)
1120:Drivers/STM32F7xx_HAL_Driver/Src/stm32f7xx_hal_rcc_ex.c ****       {
1121:Drivers/STM32F7xx_HAL_Driver/Src/stm32f7xx_hal_rcc_ex.c ****         /* return in case of Timeout detected */
1122:Drivers/STM32F7xx_HAL_Driver/Src/stm32f7xx_hal_rcc_ex.c ****         return HAL_TIMEOUT;
ARM GAS  /tmp/cciW4iGq.s 			page 40


1123:Drivers/STM32F7xx_HAL_Driver/Src/stm32f7xx_hal_rcc_ex.c ****       }
1124:Drivers/STM32F7xx_HAL_Driver/Src/stm32f7xx_hal_rcc_ex.c ****     }
1125:Drivers/STM32F7xx_HAL_Driver/Src/stm32f7xx_hal_rcc_ex.c **** 
1126:Drivers/STM32F7xx_HAL_Driver/Src/stm32f7xx_hal_rcc_ex.c ****     /* check for common PLLI2S Parameters */
1127:Drivers/STM32F7xx_HAL_Driver/Src/stm32f7xx_hal_rcc_ex.c ****     assert_param(IS_RCC_PLLI2SN_VALUE(PeriphClkInit->PLLI2S.PLLI2SN));
1128:Drivers/STM32F7xx_HAL_Driver/Src/stm32f7xx_hal_rcc_ex.c **** 
1129:Drivers/STM32F7xx_HAL_Driver/Src/stm32f7xx_hal_rcc_ex.c ****     /*----------------- In Case of PLLI2S is selected as source clock for I2S -------------------*/
1130:Drivers/STM32F7xx_HAL_Driver/Src/stm32f7xx_hal_rcc_ex.c ****     if(((((PeriphClkInit->PeriphClockSelection) & RCC_PERIPHCLK_I2S) == RCC_PERIPHCLK_I2S) && (Peri
1131:Drivers/STM32F7xx_HAL_Driver/Src/stm32f7xx_hal_rcc_ex.c ****     {
1132:Drivers/STM32F7xx_HAL_Driver/Src/stm32f7xx_hal_rcc_ex.c ****       /* check for Parameters */
1133:Drivers/STM32F7xx_HAL_Driver/Src/stm32f7xx_hal_rcc_ex.c ****       assert_param(IS_RCC_PLLI2SR_VALUE(PeriphClkInit->PLLI2S.PLLI2SR));
1134:Drivers/STM32F7xx_HAL_Driver/Src/stm32f7xx_hal_rcc_ex.c **** 
1135:Drivers/STM32F7xx_HAL_Driver/Src/stm32f7xx_hal_rcc_ex.c ****       /* Read PLLI2SQ value from PLLI2SCFGR register (this value is not needed for I2S configuratio
1136:Drivers/STM32F7xx_HAL_Driver/Src/stm32f7xx_hal_rcc_ex.c ****       tmpreg0 = ((RCC->PLLI2SCFGR & RCC_PLLI2SCFGR_PLLI2SQ) >> RCC_PLLI2SCFGR_PLLI2SQ_Pos);
1137:Drivers/STM32F7xx_HAL_Driver/Src/stm32f7xx_hal_rcc_ex.c ****       /* Configure the PLLI2S division factors */
1138:Drivers/STM32F7xx_HAL_Driver/Src/stm32f7xx_hal_rcc_ex.c ****       /* PLLI2S_VCO = f(VCO clock) = f(PLLI2S clock input) x (PLLI2SN/PLLM) */
1139:Drivers/STM32F7xx_HAL_Driver/Src/stm32f7xx_hal_rcc_ex.c ****       /* I2SCLK = f(PLLI2S clock output) = f(VCO clock) / PLLI2SR */
1140:Drivers/STM32F7xx_HAL_Driver/Src/stm32f7xx_hal_rcc_ex.c ****       __HAL_RCC_PLLI2S_CONFIG(PeriphClkInit->PLLI2S.PLLI2SN , tmpreg0, PeriphClkInit->PLLI2S.PLLI2S
1141:Drivers/STM32F7xx_HAL_Driver/Src/stm32f7xx_hal_rcc_ex.c ****     }
1142:Drivers/STM32F7xx_HAL_Driver/Src/stm32f7xx_hal_rcc_ex.c **** 
1143:Drivers/STM32F7xx_HAL_Driver/Src/stm32f7xx_hal_rcc_ex.c ****     /*----------------- In Case of PLLI2S is selected as source clock for SAI -------------------*/
1144:Drivers/STM32F7xx_HAL_Driver/Src/stm32f7xx_hal_rcc_ex.c ****     if(((((PeriphClkInit->PeriphClockSelection) & RCC_PERIPHCLK_SAI1) == RCC_PERIPHCLK_SAI1) && (Pe
1145:Drivers/STM32F7xx_HAL_Driver/Src/stm32f7xx_hal_rcc_ex.c ****        ((((PeriphClkInit->PeriphClockSelection) & RCC_PERIPHCLK_SAI2) == RCC_PERIPHCLK_SAI2) && (Pe
1146:Drivers/STM32F7xx_HAL_Driver/Src/stm32f7xx_hal_rcc_ex.c ****     {
1147:Drivers/STM32F7xx_HAL_Driver/Src/stm32f7xx_hal_rcc_ex.c ****       /* Check for PLLI2S Parameters */
1148:Drivers/STM32F7xx_HAL_Driver/Src/stm32f7xx_hal_rcc_ex.c ****       assert_param(IS_RCC_PLLI2SQ_VALUE(PeriphClkInit->PLLI2S.PLLI2SQ));
1149:Drivers/STM32F7xx_HAL_Driver/Src/stm32f7xx_hal_rcc_ex.c ****       /* Check for PLLI2S/DIVQ parameters */
1150:Drivers/STM32F7xx_HAL_Driver/Src/stm32f7xx_hal_rcc_ex.c ****       assert_param(IS_RCC_PLLI2S_DIVQ_VALUE(PeriphClkInit->PLLI2SDivQ));
1151:Drivers/STM32F7xx_HAL_Driver/Src/stm32f7xx_hal_rcc_ex.c **** 
1152:Drivers/STM32F7xx_HAL_Driver/Src/stm32f7xx_hal_rcc_ex.c ****       /* Read PLLI2SP and PLLI2SR values from PLLI2SCFGR register (this value is not needed for SAI
1153:Drivers/STM32F7xx_HAL_Driver/Src/stm32f7xx_hal_rcc_ex.c ****       tmpreg0 = ((RCC->PLLI2SCFGR & RCC_PLLI2SCFGR_PLLI2SR) >> RCC_PLLI2SCFGR_PLLI2SR_Pos);
1154:Drivers/STM32F7xx_HAL_Driver/Src/stm32f7xx_hal_rcc_ex.c ****       /* Configure the PLLI2S division factors */
1155:Drivers/STM32F7xx_HAL_Driver/Src/stm32f7xx_hal_rcc_ex.c ****       /* PLLI2S_VCO Input  = PLL_SOURCE/PLLM */
1156:Drivers/STM32F7xx_HAL_Driver/Src/stm32f7xx_hal_rcc_ex.c ****       /* PLLI2S_VCO Output = PLLI2S_VCO Input * PLLI2SN */
1157:Drivers/STM32F7xx_HAL_Driver/Src/stm32f7xx_hal_rcc_ex.c ****       /* SAI_CLK(first level) = PLLI2S_VCO Output/PLLI2SQ */
1158:Drivers/STM32F7xx_HAL_Driver/Src/stm32f7xx_hal_rcc_ex.c ****       __HAL_RCC_PLLI2S_CONFIG(PeriphClkInit->PLLI2S.PLLI2SN, PeriphClkInit->PLLI2S.PLLI2SQ, tmpreg0
1159:Drivers/STM32F7xx_HAL_Driver/Src/stm32f7xx_hal_rcc_ex.c **** 
1160:Drivers/STM32F7xx_HAL_Driver/Src/stm32f7xx_hal_rcc_ex.c ****       /* SAI_CLK_x = SAI_CLK(first level)/PLLI2SDIVQ */
1161:Drivers/STM32F7xx_HAL_Driver/Src/stm32f7xx_hal_rcc_ex.c ****       __HAL_RCC_PLLI2S_PLLSAICLKDIVQ_CONFIG(PeriphClkInit->PLLI2SDivQ);
1162:Drivers/STM32F7xx_HAL_Driver/Src/stm32f7xx_hal_rcc_ex.c ****     }
1163:Drivers/STM32F7xx_HAL_Driver/Src/stm32f7xx_hal_rcc_ex.c **** 
1164:Drivers/STM32F7xx_HAL_Driver/Src/stm32f7xx_hal_rcc_ex.c ****     /*----------------- In Case of PLLI2S is just selected  -----------------*/
1165:Drivers/STM32F7xx_HAL_Driver/Src/stm32f7xx_hal_rcc_ex.c ****     if((PeriphClkInit->PeriphClockSelection & RCC_PERIPHCLK_PLLI2S) == RCC_PERIPHCLK_PLLI2S)
1166:Drivers/STM32F7xx_HAL_Driver/Src/stm32f7xx_hal_rcc_ex.c ****     {
1167:Drivers/STM32F7xx_HAL_Driver/Src/stm32f7xx_hal_rcc_ex.c ****       /* Check for Parameters */
1168:Drivers/STM32F7xx_HAL_Driver/Src/stm32f7xx_hal_rcc_ex.c ****       assert_param(IS_RCC_PLLI2SR_VALUE(PeriphClkInit->PLLI2S.PLLI2SR));
1169:Drivers/STM32F7xx_HAL_Driver/Src/stm32f7xx_hal_rcc_ex.c ****       assert_param(IS_RCC_PLLI2SQ_VALUE(PeriphClkInit->PLLI2S.PLLI2SQ));
1170:Drivers/STM32F7xx_HAL_Driver/Src/stm32f7xx_hal_rcc_ex.c **** 
1171:Drivers/STM32F7xx_HAL_Driver/Src/stm32f7xx_hal_rcc_ex.c ****       /* Configure the PLLI2S division factors */
1172:Drivers/STM32F7xx_HAL_Driver/Src/stm32f7xx_hal_rcc_ex.c ****       /* PLLI2S_VCO = f(VCO clock) = f(PLLI2S clock input) x (PLLI2SN/PLLI2SM) */
1173:Drivers/STM32F7xx_HAL_Driver/Src/stm32f7xx_hal_rcc_ex.c ****       __HAL_RCC_PLLI2S_CONFIG(PeriphClkInit->PLLI2S.PLLI2SN , PeriphClkInit->PLLI2S.PLLI2SQ, Periph
1174:Drivers/STM32F7xx_HAL_Driver/Src/stm32f7xx_hal_rcc_ex.c ****     }
1175:Drivers/STM32F7xx_HAL_Driver/Src/stm32f7xx_hal_rcc_ex.c **** 
1176:Drivers/STM32F7xx_HAL_Driver/Src/stm32f7xx_hal_rcc_ex.c ****     /* Enable the PLLI2S */
1177:Drivers/STM32F7xx_HAL_Driver/Src/stm32f7xx_hal_rcc_ex.c ****     __HAL_RCC_PLLI2S_ENABLE();
1178:Drivers/STM32F7xx_HAL_Driver/Src/stm32f7xx_hal_rcc_ex.c **** 
1179:Drivers/STM32F7xx_HAL_Driver/Src/stm32f7xx_hal_rcc_ex.c ****     /* Get Start Tick*/
ARM GAS  /tmp/cciW4iGq.s 			page 41


1180:Drivers/STM32F7xx_HAL_Driver/Src/stm32f7xx_hal_rcc_ex.c ****     tickstart = HAL_GetTick();
1181:Drivers/STM32F7xx_HAL_Driver/Src/stm32f7xx_hal_rcc_ex.c **** 
1182:Drivers/STM32F7xx_HAL_Driver/Src/stm32f7xx_hal_rcc_ex.c ****     /* Wait till PLLI2S is ready */
1183:Drivers/STM32F7xx_HAL_Driver/Src/stm32f7xx_hal_rcc_ex.c ****     while(__HAL_RCC_GET_FLAG(RCC_FLAG_PLLI2SRDY)  == RESET)
1184:Drivers/STM32F7xx_HAL_Driver/Src/stm32f7xx_hal_rcc_ex.c ****     {
1185:Drivers/STM32F7xx_HAL_Driver/Src/stm32f7xx_hal_rcc_ex.c ****       if((HAL_GetTick() - tickstart) > PLLI2S_TIMEOUT_VALUE)
1186:Drivers/STM32F7xx_HAL_Driver/Src/stm32f7xx_hal_rcc_ex.c ****       {
1187:Drivers/STM32F7xx_HAL_Driver/Src/stm32f7xx_hal_rcc_ex.c ****         /* return in case of Timeout detected */
1188:Drivers/STM32F7xx_HAL_Driver/Src/stm32f7xx_hal_rcc_ex.c ****         return HAL_TIMEOUT;
1189:Drivers/STM32F7xx_HAL_Driver/Src/stm32f7xx_hal_rcc_ex.c ****       }
1190:Drivers/STM32F7xx_HAL_Driver/Src/stm32f7xx_hal_rcc_ex.c ****     }
1191:Drivers/STM32F7xx_HAL_Driver/Src/stm32f7xx_hal_rcc_ex.c ****   }
1192:Drivers/STM32F7xx_HAL_Driver/Src/stm32f7xx_hal_rcc_ex.c **** 
1193:Drivers/STM32F7xx_HAL_Driver/Src/stm32f7xx_hal_rcc_ex.c ****   /*-------------------------------------- PLLSAI Configuration ---------------------------------*/
1194:Drivers/STM32F7xx_HAL_Driver/Src/stm32f7xx_hal_rcc_ex.c ****   /* PLLSAI is configured when a peripheral will use it as source clock : SAI1, SAI2, LTDC or CK48 
1195:Drivers/STM32F7xx_HAL_Driver/Src/stm32f7xx_hal_rcc_ex.c ****   if(pllsaiused == 1)
1196:Drivers/STM32F7xx_HAL_Driver/Src/stm32f7xx_hal_rcc_ex.c ****   {
1197:Drivers/STM32F7xx_HAL_Driver/Src/stm32f7xx_hal_rcc_ex.c ****     /* Disable PLLSAI Clock */
1198:Drivers/STM32F7xx_HAL_Driver/Src/stm32f7xx_hal_rcc_ex.c ****     __HAL_RCC_PLLSAI_DISABLE();
1199:Drivers/STM32F7xx_HAL_Driver/Src/stm32f7xx_hal_rcc_ex.c **** 
1200:Drivers/STM32F7xx_HAL_Driver/Src/stm32f7xx_hal_rcc_ex.c ****     /* Get Start Tick*/
1201:Drivers/STM32F7xx_HAL_Driver/Src/stm32f7xx_hal_rcc_ex.c ****     tickstart = HAL_GetTick();
1202:Drivers/STM32F7xx_HAL_Driver/Src/stm32f7xx_hal_rcc_ex.c **** 
1203:Drivers/STM32F7xx_HAL_Driver/Src/stm32f7xx_hal_rcc_ex.c ****     /* Wait till PLLSAI is disabled */
1204:Drivers/STM32F7xx_HAL_Driver/Src/stm32f7xx_hal_rcc_ex.c ****     while(__HAL_RCC_PLLSAI_GET_FLAG() != RESET)
1205:Drivers/STM32F7xx_HAL_Driver/Src/stm32f7xx_hal_rcc_ex.c ****     {
1206:Drivers/STM32F7xx_HAL_Driver/Src/stm32f7xx_hal_rcc_ex.c ****       if((HAL_GetTick() - tickstart) > PLLSAI_TIMEOUT_VALUE)
1207:Drivers/STM32F7xx_HAL_Driver/Src/stm32f7xx_hal_rcc_ex.c ****       {
1208:Drivers/STM32F7xx_HAL_Driver/Src/stm32f7xx_hal_rcc_ex.c ****         /* return in case of Timeout detected */
1209:Drivers/STM32F7xx_HAL_Driver/Src/stm32f7xx_hal_rcc_ex.c ****         return HAL_TIMEOUT;
1210:Drivers/STM32F7xx_HAL_Driver/Src/stm32f7xx_hal_rcc_ex.c ****       }
1211:Drivers/STM32F7xx_HAL_Driver/Src/stm32f7xx_hal_rcc_ex.c ****     }
1212:Drivers/STM32F7xx_HAL_Driver/Src/stm32f7xx_hal_rcc_ex.c **** 
1213:Drivers/STM32F7xx_HAL_Driver/Src/stm32f7xx_hal_rcc_ex.c ****     /* Check the PLLSAI division factors */
1214:Drivers/STM32F7xx_HAL_Driver/Src/stm32f7xx_hal_rcc_ex.c ****     assert_param(IS_RCC_PLLSAIN_VALUE(PeriphClkInit->PLLSAI.PLLSAIN));
1215:Drivers/STM32F7xx_HAL_Driver/Src/stm32f7xx_hal_rcc_ex.c **** 
1216:Drivers/STM32F7xx_HAL_Driver/Src/stm32f7xx_hal_rcc_ex.c ****     /*----------------- In Case of PLLSAI is selected as source clock for SAI -------------------*/
1217:Drivers/STM32F7xx_HAL_Driver/Src/stm32f7xx_hal_rcc_ex.c ****     if(((((PeriphClkInit->PeriphClockSelection) & RCC_PERIPHCLK_SAI1) == RCC_PERIPHCLK_SAI1) && (Pe
1218:Drivers/STM32F7xx_HAL_Driver/Src/stm32f7xx_hal_rcc_ex.c ****        ((((PeriphClkInit->PeriphClockSelection) & RCC_PERIPHCLK_SAI2) == RCC_PERIPHCLK_SAI2) && (Pe
1219:Drivers/STM32F7xx_HAL_Driver/Src/stm32f7xx_hal_rcc_ex.c ****     {
1220:Drivers/STM32F7xx_HAL_Driver/Src/stm32f7xx_hal_rcc_ex.c ****       /* check for PLLSAIQ Parameter */
1221:Drivers/STM32F7xx_HAL_Driver/Src/stm32f7xx_hal_rcc_ex.c ****       assert_param(IS_RCC_PLLSAIQ_VALUE(PeriphClkInit->PLLSAI.PLLSAIQ));
1222:Drivers/STM32F7xx_HAL_Driver/Src/stm32f7xx_hal_rcc_ex.c ****       /* check for PLLSAI/DIVQ Parameter */
1223:Drivers/STM32F7xx_HAL_Driver/Src/stm32f7xx_hal_rcc_ex.c ****       assert_param(IS_RCC_PLLSAI_DIVQ_VALUE(PeriphClkInit->PLLSAIDivQ));
1224:Drivers/STM32F7xx_HAL_Driver/Src/stm32f7xx_hal_rcc_ex.c **** 
1225:Drivers/STM32F7xx_HAL_Driver/Src/stm32f7xx_hal_rcc_ex.c ****       /* Read PLLSAIP value from PLLSAICFGR register (this value is not needed for SAI configuratio
1226:Drivers/STM32F7xx_HAL_Driver/Src/stm32f7xx_hal_rcc_ex.c ****       tmpreg0 = ((RCC->PLLSAICFGR & RCC_PLLSAICFGR_PLLSAIP) >> RCC_PLLSAICFGR_PLLSAIP_Pos);
1227:Drivers/STM32F7xx_HAL_Driver/Src/stm32f7xx_hal_rcc_ex.c ****       /* PLLSAI_VCO Input  = PLL_SOURCE/PLLM */
1228:Drivers/STM32F7xx_HAL_Driver/Src/stm32f7xx_hal_rcc_ex.c ****       /* PLLSAI_VCO Output = PLLSAI_VCO Input * PLLSAIN */
1229:Drivers/STM32F7xx_HAL_Driver/Src/stm32f7xx_hal_rcc_ex.c ****       /* SAI_CLK(first level) = PLLSAI_VCO Output/PLLSAIQ */
1230:Drivers/STM32F7xx_HAL_Driver/Src/stm32f7xx_hal_rcc_ex.c ****       __HAL_RCC_PLLSAI_CONFIG(PeriphClkInit->PLLSAI.PLLSAIN , tmpreg0, PeriphClkInit->PLLSAI.PLLSAI
1231:Drivers/STM32F7xx_HAL_Driver/Src/stm32f7xx_hal_rcc_ex.c **** 
1232:Drivers/STM32F7xx_HAL_Driver/Src/stm32f7xx_hal_rcc_ex.c ****       /* SAI_CLK_x = SAI_CLK(first level)/PLLSAIDIVQ */
1233:Drivers/STM32F7xx_HAL_Driver/Src/stm32f7xx_hal_rcc_ex.c ****       __HAL_RCC_PLLSAI_PLLSAICLKDIVQ_CONFIG(PeriphClkInit->PLLSAIDivQ);
1234:Drivers/STM32F7xx_HAL_Driver/Src/stm32f7xx_hal_rcc_ex.c ****     }
1235:Drivers/STM32F7xx_HAL_Driver/Src/stm32f7xx_hal_rcc_ex.c **** 
1236:Drivers/STM32F7xx_HAL_Driver/Src/stm32f7xx_hal_rcc_ex.c ****     /*----------------- In Case of PLLSAI is selected as source clock for CLK48 -------------------
ARM GAS  /tmp/cciW4iGq.s 			page 42


1237:Drivers/STM32F7xx_HAL_Driver/Src/stm32f7xx_hal_rcc_ex.c ****     /* In Case of PLLI2S is selected as source clock for CK48 */
1238:Drivers/STM32F7xx_HAL_Driver/Src/stm32f7xx_hal_rcc_ex.c ****     if((((PeriphClkInit->PeriphClockSelection) & RCC_PERIPHCLK_CLK48) == RCC_PERIPHCLK_CLK48) && (P
1239:Drivers/STM32F7xx_HAL_Driver/Src/stm32f7xx_hal_rcc_ex.c ****     {
1240:Drivers/STM32F7xx_HAL_Driver/Src/stm32f7xx_hal_rcc_ex.c ****       /* check for Parameters */
1241:Drivers/STM32F7xx_HAL_Driver/Src/stm32f7xx_hal_rcc_ex.c ****       assert_param(IS_RCC_PLLSAIP_VALUE(PeriphClkInit->PLLSAI.PLLSAIP));
1242:Drivers/STM32F7xx_HAL_Driver/Src/stm32f7xx_hal_rcc_ex.c ****       /* Read PLLSAIQ and PLLSAIR value from PLLSAICFGR register (this value is not needed for CK48
1243:Drivers/STM32F7xx_HAL_Driver/Src/stm32f7xx_hal_rcc_ex.c ****       tmpreg0 = ((RCC->PLLSAICFGR & RCC_PLLSAICFGR_PLLSAIQ) >> RCC_PLLSAICFGR_PLLSAIQ_Pos);
1244:Drivers/STM32F7xx_HAL_Driver/Src/stm32f7xx_hal_rcc_ex.c **** 
1245:Drivers/STM32F7xx_HAL_Driver/Src/stm32f7xx_hal_rcc_ex.c ****       /* Configure the PLLSAI division factors */
1246:Drivers/STM32F7xx_HAL_Driver/Src/stm32f7xx_hal_rcc_ex.c ****       /* PLLSAI_VCO = f(VCO clock) = f(PLLSAI clock input) x (PLLI2SN/PLLM) */
1247:Drivers/STM32F7xx_HAL_Driver/Src/stm32f7xx_hal_rcc_ex.c ****       /* 48CLK = f(PLLSAI clock output) = f(VCO clock) / PLLSAIP */
1248:Drivers/STM32F7xx_HAL_Driver/Src/stm32f7xx_hal_rcc_ex.c ****       __HAL_RCC_PLLSAI_CONFIG(PeriphClkInit->PLLSAI.PLLSAIN , PeriphClkInit->PLLSAI.PLLSAIP, tmpreg
1249:Drivers/STM32F7xx_HAL_Driver/Src/stm32f7xx_hal_rcc_ex.c ****     }
1250:Drivers/STM32F7xx_HAL_Driver/Src/stm32f7xx_hal_rcc_ex.c **** 
1251:Drivers/STM32F7xx_HAL_Driver/Src/stm32f7xx_hal_rcc_ex.c ****     /* Enable PLLSAI Clock */
1252:Drivers/STM32F7xx_HAL_Driver/Src/stm32f7xx_hal_rcc_ex.c ****     __HAL_RCC_PLLSAI_ENABLE();
1253:Drivers/STM32F7xx_HAL_Driver/Src/stm32f7xx_hal_rcc_ex.c **** 
1254:Drivers/STM32F7xx_HAL_Driver/Src/stm32f7xx_hal_rcc_ex.c ****     /* Get Start Tick*/
1255:Drivers/STM32F7xx_HAL_Driver/Src/stm32f7xx_hal_rcc_ex.c ****     tickstart = HAL_GetTick();
1256:Drivers/STM32F7xx_HAL_Driver/Src/stm32f7xx_hal_rcc_ex.c **** 
1257:Drivers/STM32F7xx_HAL_Driver/Src/stm32f7xx_hal_rcc_ex.c ****     /* Wait till PLLSAI is ready */
1258:Drivers/STM32F7xx_HAL_Driver/Src/stm32f7xx_hal_rcc_ex.c ****     while(__HAL_RCC_PLLSAI_GET_FLAG() == RESET)
1259:Drivers/STM32F7xx_HAL_Driver/Src/stm32f7xx_hal_rcc_ex.c ****     {
1260:Drivers/STM32F7xx_HAL_Driver/Src/stm32f7xx_hal_rcc_ex.c ****       if((HAL_GetTick() - tickstart) > PLLSAI_TIMEOUT_VALUE)
1261:Drivers/STM32F7xx_HAL_Driver/Src/stm32f7xx_hal_rcc_ex.c ****       {
1262:Drivers/STM32F7xx_HAL_Driver/Src/stm32f7xx_hal_rcc_ex.c ****         /* return in case of Timeout detected */
1263:Drivers/STM32F7xx_HAL_Driver/Src/stm32f7xx_hal_rcc_ex.c ****         return HAL_TIMEOUT;
1264:Drivers/STM32F7xx_HAL_Driver/Src/stm32f7xx_hal_rcc_ex.c ****       }
1265:Drivers/STM32F7xx_HAL_Driver/Src/stm32f7xx_hal_rcc_ex.c ****     }
1266:Drivers/STM32F7xx_HAL_Driver/Src/stm32f7xx_hal_rcc_ex.c ****   }
1267:Drivers/STM32F7xx_HAL_Driver/Src/stm32f7xx_hal_rcc_ex.c ****   return HAL_OK;
1268:Drivers/STM32F7xx_HAL_Driver/Src/stm32f7xx_hal_rcc_ex.c **** }
1269:Drivers/STM32F7xx_HAL_Driver/Src/stm32f7xx_hal_rcc_ex.c **** 
1270:Drivers/STM32F7xx_HAL_Driver/Src/stm32f7xx_hal_rcc_ex.c **** /**
1271:Drivers/STM32F7xx_HAL_Driver/Src/stm32f7xx_hal_rcc_ex.c ****   * @brief  Get the RCC_PeriphCLKInitTypeDef according to the internal
1272:Drivers/STM32F7xx_HAL_Driver/Src/stm32f7xx_hal_rcc_ex.c ****   *         RCC configuration registers.
1273:Drivers/STM32F7xx_HAL_Driver/Src/stm32f7xx_hal_rcc_ex.c ****   * @param  PeriphClkInit pointer to the configured RCC_PeriphCLKInitTypeDef structure
1274:Drivers/STM32F7xx_HAL_Driver/Src/stm32f7xx_hal_rcc_ex.c ****   * @retval None
1275:Drivers/STM32F7xx_HAL_Driver/Src/stm32f7xx_hal_rcc_ex.c ****   */
1276:Drivers/STM32F7xx_HAL_Driver/Src/stm32f7xx_hal_rcc_ex.c **** void HAL_RCCEx_GetPeriphCLKConfig(RCC_PeriphCLKInitTypeDef  *PeriphClkInit)
1277:Drivers/STM32F7xx_HAL_Driver/Src/stm32f7xx_hal_rcc_ex.c **** {
1278:Drivers/STM32F7xx_HAL_Driver/Src/stm32f7xx_hal_rcc_ex.c ****   uint32_t tempreg = 0;
1279:Drivers/STM32F7xx_HAL_Driver/Src/stm32f7xx_hal_rcc_ex.c **** 
1280:Drivers/STM32F7xx_HAL_Driver/Src/stm32f7xx_hal_rcc_ex.c ****   /* Set all possible values for the extended clock type parameter------------*/
1281:Drivers/STM32F7xx_HAL_Driver/Src/stm32f7xx_hal_rcc_ex.c ****   PeriphClkInit->PeriphClockSelection = RCC_PERIPHCLK_I2S      | RCC_PERIPHCLK_LPTIM1   |\
1282:Drivers/STM32F7xx_HAL_Driver/Src/stm32f7xx_hal_rcc_ex.c ****                                         RCC_PERIPHCLK_SAI1     | RCC_PERIPHCLK_SAI2     |\
1283:Drivers/STM32F7xx_HAL_Driver/Src/stm32f7xx_hal_rcc_ex.c ****                                         RCC_PERIPHCLK_TIM      | RCC_PERIPHCLK_RTC      |\
1284:Drivers/STM32F7xx_HAL_Driver/Src/stm32f7xx_hal_rcc_ex.c ****                                         RCC_PERIPHCLK_I2C1     | RCC_PERIPHCLK_I2C2     |\
1285:Drivers/STM32F7xx_HAL_Driver/Src/stm32f7xx_hal_rcc_ex.c ****                                         RCC_PERIPHCLK_I2C3     | RCC_PERIPHCLK_USART1   |\
1286:Drivers/STM32F7xx_HAL_Driver/Src/stm32f7xx_hal_rcc_ex.c ****                                         RCC_PERIPHCLK_USART2   | RCC_PERIPHCLK_USART3   |\
1287:Drivers/STM32F7xx_HAL_Driver/Src/stm32f7xx_hal_rcc_ex.c ****                                         RCC_PERIPHCLK_UART4    | RCC_PERIPHCLK_UART5    |\
1288:Drivers/STM32F7xx_HAL_Driver/Src/stm32f7xx_hal_rcc_ex.c ****                                         RCC_PERIPHCLK_USART6   | RCC_PERIPHCLK_UART7    |\
1289:Drivers/STM32F7xx_HAL_Driver/Src/stm32f7xx_hal_rcc_ex.c ****                                         RCC_PERIPHCLK_UART8    | RCC_PERIPHCLK_SDMMC1   |\
1290:Drivers/STM32F7xx_HAL_Driver/Src/stm32f7xx_hal_rcc_ex.c ****                                         RCC_PERIPHCLK_CLK48    | RCC_PERIPHCLK_SDMMC2;
1291:Drivers/STM32F7xx_HAL_Driver/Src/stm32f7xx_hal_rcc_ex.c **** 
1292:Drivers/STM32F7xx_HAL_Driver/Src/stm32f7xx_hal_rcc_ex.c ****   /* Get the PLLI2S Clock configuration -----------------------------------------------*/
1293:Drivers/STM32F7xx_HAL_Driver/Src/stm32f7xx_hal_rcc_ex.c ****   PeriphClkInit->PLLI2S.PLLI2SN = (uint32_t)((RCC->PLLI2SCFGR & RCC_PLLI2SCFGR_PLLI2SN) >> RCC_PLLI
ARM GAS  /tmp/cciW4iGq.s 			page 43


1294:Drivers/STM32F7xx_HAL_Driver/Src/stm32f7xx_hal_rcc_ex.c ****   PeriphClkInit->PLLI2S.PLLI2SQ = (uint32_t)((RCC->PLLI2SCFGR & RCC_PLLI2SCFGR_PLLI2SQ) >> RCC_PLLI
1295:Drivers/STM32F7xx_HAL_Driver/Src/stm32f7xx_hal_rcc_ex.c ****   PeriphClkInit->PLLI2S.PLLI2SR = (uint32_t)((RCC->PLLI2SCFGR & RCC_PLLI2SCFGR_PLLI2SR) >> RCC_PLLI
1296:Drivers/STM32F7xx_HAL_Driver/Src/stm32f7xx_hal_rcc_ex.c **** 
1297:Drivers/STM32F7xx_HAL_Driver/Src/stm32f7xx_hal_rcc_ex.c ****   /* Get the PLLSAI Clock configuration -----------------------------------------------*/
1298:Drivers/STM32F7xx_HAL_Driver/Src/stm32f7xx_hal_rcc_ex.c ****   PeriphClkInit->PLLSAI.PLLSAIN = (uint32_t)((RCC->PLLSAICFGR & RCC_PLLSAICFGR_PLLSAIN) >> RCC_PLLS
1299:Drivers/STM32F7xx_HAL_Driver/Src/stm32f7xx_hal_rcc_ex.c ****   PeriphClkInit->PLLSAI.PLLSAIP = (uint32_t)((RCC->PLLSAICFGR & RCC_PLLSAICFGR_PLLSAIP) >> RCC_PLLS
1300:Drivers/STM32F7xx_HAL_Driver/Src/stm32f7xx_hal_rcc_ex.c ****   PeriphClkInit->PLLSAI.PLLSAIQ = (uint32_t)((RCC->PLLSAICFGR & RCC_PLLSAICFGR_PLLSAIQ) >> RCC_PLLS
1301:Drivers/STM32F7xx_HAL_Driver/Src/stm32f7xx_hal_rcc_ex.c **** 
1302:Drivers/STM32F7xx_HAL_Driver/Src/stm32f7xx_hal_rcc_ex.c ****   /* Get the PLLSAI/PLLI2S division factors -------------------------------------------*/
1303:Drivers/STM32F7xx_HAL_Driver/Src/stm32f7xx_hal_rcc_ex.c ****   PeriphClkInit->PLLI2SDivQ = (uint32_t)((RCC->DCKCFGR1 & RCC_DCKCFGR1_PLLI2SDIVQ) >> RCC_DCKCFGR1_
1304:Drivers/STM32F7xx_HAL_Driver/Src/stm32f7xx_hal_rcc_ex.c ****   PeriphClkInit->PLLSAIDivQ = (uint32_t)((RCC->DCKCFGR1 & RCC_DCKCFGR1_PLLSAIDIVQ) >> RCC_DCKCFGR1_
1305:Drivers/STM32F7xx_HAL_Driver/Src/stm32f7xx_hal_rcc_ex.c **** 
1306:Drivers/STM32F7xx_HAL_Driver/Src/stm32f7xx_hal_rcc_ex.c ****   /* Get the SAI1 clock configuration ----------------------------------------------*/
1307:Drivers/STM32F7xx_HAL_Driver/Src/stm32f7xx_hal_rcc_ex.c ****   PeriphClkInit->Sai1ClockSelection = __HAL_RCC_GET_SAI1_SOURCE();
1308:Drivers/STM32F7xx_HAL_Driver/Src/stm32f7xx_hal_rcc_ex.c **** 
1309:Drivers/STM32F7xx_HAL_Driver/Src/stm32f7xx_hal_rcc_ex.c ****   /* Get the SAI2 clock configuration ----------------------------------------------*/
1310:Drivers/STM32F7xx_HAL_Driver/Src/stm32f7xx_hal_rcc_ex.c ****   PeriphClkInit->Sai2ClockSelection = __HAL_RCC_GET_SAI2_SOURCE();
1311:Drivers/STM32F7xx_HAL_Driver/Src/stm32f7xx_hal_rcc_ex.c **** 
1312:Drivers/STM32F7xx_HAL_Driver/Src/stm32f7xx_hal_rcc_ex.c ****   /* Get the I2S clock configuration ------------------------------------------*/
1313:Drivers/STM32F7xx_HAL_Driver/Src/stm32f7xx_hal_rcc_ex.c ****   PeriphClkInit->I2sClockSelection = __HAL_RCC_GET_I2SCLKSOURCE();
1314:Drivers/STM32F7xx_HAL_Driver/Src/stm32f7xx_hal_rcc_ex.c **** 
1315:Drivers/STM32F7xx_HAL_Driver/Src/stm32f7xx_hal_rcc_ex.c ****   /* Get the I2C1 clock configuration ------------------------------------------*/
1316:Drivers/STM32F7xx_HAL_Driver/Src/stm32f7xx_hal_rcc_ex.c ****   PeriphClkInit->I2c1ClockSelection = __HAL_RCC_GET_I2C1_SOURCE();
1317:Drivers/STM32F7xx_HAL_Driver/Src/stm32f7xx_hal_rcc_ex.c **** 
1318:Drivers/STM32F7xx_HAL_Driver/Src/stm32f7xx_hal_rcc_ex.c ****   /* Get the I2C2 clock configuration ------------------------------------------*/
1319:Drivers/STM32F7xx_HAL_Driver/Src/stm32f7xx_hal_rcc_ex.c ****   PeriphClkInit->I2c2ClockSelection = __HAL_RCC_GET_I2C2_SOURCE();
1320:Drivers/STM32F7xx_HAL_Driver/Src/stm32f7xx_hal_rcc_ex.c **** 
1321:Drivers/STM32F7xx_HAL_Driver/Src/stm32f7xx_hal_rcc_ex.c ****   /* Get the I2C3 clock configuration ------------------------------------------*/
1322:Drivers/STM32F7xx_HAL_Driver/Src/stm32f7xx_hal_rcc_ex.c ****   PeriphClkInit->I2c3ClockSelection = __HAL_RCC_GET_I2C3_SOURCE();
1323:Drivers/STM32F7xx_HAL_Driver/Src/stm32f7xx_hal_rcc_ex.c **** 
1324:Drivers/STM32F7xx_HAL_Driver/Src/stm32f7xx_hal_rcc_ex.c ****   /* Get the USART1 clock configuration ------------------------------------------*/
1325:Drivers/STM32F7xx_HAL_Driver/Src/stm32f7xx_hal_rcc_ex.c ****   PeriphClkInit->Usart1ClockSelection = __HAL_RCC_GET_USART1_SOURCE();
1326:Drivers/STM32F7xx_HAL_Driver/Src/stm32f7xx_hal_rcc_ex.c **** 
1327:Drivers/STM32F7xx_HAL_Driver/Src/stm32f7xx_hal_rcc_ex.c ****   /* Get the USART2 clock configuration ------------------------------------------*/
1328:Drivers/STM32F7xx_HAL_Driver/Src/stm32f7xx_hal_rcc_ex.c ****   PeriphClkInit->Usart2ClockSelection = __HAL_RCC_GET_USART2_SOURCE();
1329:Drivers/STM32F7xx_HAL_Driver/Src/stm32f7xx_hal_rcc_ex.c **** 
1330:Drivers/STM32F7xx_HAL_Driver/Src/stm32f7xx_hal_rcc_ex.c ****   /* Get the USART3 clock configuration ------------------------------------------*/
1331:Drivers/STM32F7xx_HAL_Driver/Src/stm32f7xx_hal_rcc_ex.c ****   PeriphClkInit->Usart3ClockSelection = __HAL_RCC_GET_USART3_SOURCE();
1332:Drivers/STM32F7xx_HAL_Driver/Src/stm32f7xx_hal_rcc_ex.c **** 
1333:Drivers/STM32F7xx_HAL_Driver/Src/stm32f7xx_hal_rcc_ex.c ****   /* Get the UART4 clock configuration ------------------------------------------*/
1334:Drivers/STM32F7xx_HAL_Driver/Src/stm32f7xx_hal_rcc_ex.c ****   PeriphClkInit->Uart4ClockSelection = __HAL_RCC_GET_UART4_SOURCE();
1335:Drivers/STM32F7xx_HAL_Driver/Src/stm32f7xx_hal_rcc_ex.c **** 
1336:Drivers/STM32F7xx_HAL_Driver/Src/stm32f7xx_hal_rcc_ex.c ****   /* Get the UART5 clock configuration ------------------------------------------*/
1337:Drivers/STM32F7xx_HAL_Driver/Src/stm32f7xx_hal_rcc_ex.c ****   PeriphClkInit->Uart5ClockSelection = __HAL_RCC_GET_UART5_SOURCE();
1338:Drivers/STM32F7xx_HAL_Driver/Src/stm32f7xx_hal_rcc_ex.c **** 
1339:Drivers/STM32F7xx_HAL_Driver/Src/stm32f7xx_hal_rcc_ex.c ****   /* Get the USART6 clock configuration ------------------------------------------*/
1340:Drivers/STM32F7xx_HAL_Driver/Src/stm32f7xx_hal_rcc_ex.c ****   PeriphClkInit->Usart6ClockSelection = __HAL_RCC_GET_USART6_SOURCE();
1341:Drivers/STM32F7xx_HAL_Driver/Src/stm32f7xx_hal_rcc_ex.c **** 
1342:Drivers/STM32F7xx_HAL_Driver/Src/stm32f7xx_hal_rcc_ex.c ****   /* Get the UART7 clock configuration ------------------------------------------*/
1343:Drivers/STM32F7xx_HAL_Driver/Src/stm32f7xx_hal_rcc_ex.c ****   PeriphClkInit->Uart7ClockSelection = __HAL_RCC_GET_UART7_SOURCE();
1344:Drivers/STM32F7xx_HAL_Driver/Src/stm32f7xx_hal_rcc_ex.c **** 
1345:Drivers/STM32F7xx_HAL_Driver/Src/stm32f7xx_hal_rcc_ex.c ****   /* Get the UART8 clock configuration ------------------------------------------*/
1346:Drivers/STM32F7xx_HAL_Driver/Src/stm32f7xx_hal_rcc_ex.c ****   PeriphClkInit->Uart8ClockSelection = __HAL_RCC_GET_UART8_SOURCE();
1347:Drivers/STM32F7xx_HAL_Driver/Src/stm32f7xx_hal_rcc_ex.c **** 
1348:Drivers/STM32F7xx_HAL_Driver/Src/stm32f7xx_hal_rcc_ex.c ****   /* Get the LPTIM1 clock configuration ------------------------------------------*/
1349:Drivers/STM32F7xx_HAL_Driver/Src/stm32f7xx_hal_rcc_ex.c ****   PeriphClkInit->Lptim1ClockSelection = __HAL_RCC_GET_LPTIM1_SOURCE();
1350:Drivers/STM32F7xx_HAL_Driver/Src/stm32f7xx_hal_rcc_ex.c **** 
ARM GAS  /tmp/cciW4iGq.s 			page 44


1351:Drivers/STM32F7xx_HAL_Driver/Src/stm32f7xx_hal_rcc_ex.c ****   /* Get the CK48 clock configuration -----------------------------------------------*/
1352:Drivers/STM32F7xx_HAL_Driver/Src/stm32f7xx_hal_rcc_ex.c ****   PeriphClkInit->Clk48ClockSelection = __HAL_RCC_GET_CLK48_SOURCE();
1353:Drivers/STM32F7xx_HAL_Driver/Src/stm32f7xx_hal_rcc_ex.c **** 
1354:Drivers/STM32F7xx_HAL_Driver/Src/stm32f7xx_hal_rcc_ex.c ****   /* Get the SDMMC1 clock configuration -----------------------------------------------*/
1355:Drivers/STM32F7xx_HAL_Driver/Src/stm32f7xx_hal_rcc_ex.c ****   PeriphClkInit->Sdmmc1ClockSelection = __HAL_RCC_GET_SDMMC1_SOURCE();
1356:Drivers/STM32F7xx_HAL_Driver/Src/stm32f7xx_hal_rcc_ex.c **** 
1357:Drivers/STM32F7xx_HAL_Driver/Src/stm32f7xx_hal_rcc_ex.c ****   /* Get the SDMMC2 clock configuration -----------------------------------------------*/
1358:Drivers/STM32F7xx_HAL_Driver/Src/stm32f7xx_hal_rcc_ex.c ****   PeriphClkInit->Sdmmc2ClockSelection = __HAL_RCC_GET_SDMMC2_SOURCE();
1359:Drivers/STM32F7xx_HAL_Driver/Src/stm32f7xx_hal_rcc_ex.c **** 
1360:Drivers/STM32F7xx_HAL_Driver/Src/stm32f7xx_hal_rcc_ex.c ****   /* Get the RTC Clock configuration -----------------------------------------------*/
1361:Drivers/STM32F7xx_HAL_Driver/Src/stm32f7xx_hal_rcc_ex.c ****   tempreg = (RCC->CFGR & RCC_CFGR_RTCPRE);
1362:Drivers/STM32F7xx_HAL_Driver/Src/stm32f7xx_hal_rcc_ex.c ****   PeriphClkInit->RTCClockSelection = (uint32_t)((tempreg) | (RCC->BDCR & RCC_BDCR_RTCSEL));
1363:Drivers/STM32F7xx_HAL_Driver/Src/stm32f7xx_hal_rcc_ex.c **** 
1364:Drivers/STM32F7xx_HAL_Driver/Src/stm32f7xx_hal_rcc_ex.c ****   /* Get the TIM Prescaler configuration --------------------------------------------*/
1365:Drivers/STM32F7xx_HAL_Driver/Src/stm32f7xx_hal_rcc_ex.c ****   if ((RCC->DCKCFGR1 & RCC_DCKCFGR1_TIMPRE) == RESET)
1366:Drivers/STM32F7xx_HAL_Driver/Src/stm32f7xx_hal_rcc_ex.c ****   {
1367:Drivers/STM32F7xx_HAL_Driver/Src/stm32f7xx_hal_rcc_ex.c ****     PeriphClkInit->TIMPresSelection = RCC_TIMPRES_DESACTIVATED;
1368:Drivers/STM32F7xx_HAL_Driver/Src/stm32f7xx_hal_rcc_ex.c ****   }
1369:Drivers/STM32F7xx_HAL_Driver/Src/stm32f7xx_hal_rcc_ex.c ****   else
1370:Drivers/STM32F7xx_HAL_Driver/Src/stm32f7xx_hal_rcc_ex.c ****   {
1371:Drivers/STM32F7xx_HAL_Driver/Src/stm32f7xx_hal_rcc_ex.c ****     PeriphClkInit->TIMPresSelection = RCC_TIMPRES_ACTIVATED;
1372:Drivers/STM32F7xx_HAL_Driver/Src/stm32f7xx_hal_rcc_ex.c ****   }
1373:Drivers/STM32F7xx_HAL_Driver/Src/stm32f7xx_hal_rcc_ex.c **** }
1374:Drivers/STM32F7xx_HAL_Driver/Src/stm32f7xx_hal_rcc_ex.c **** #endif /* STM32F722xx || STM32F723xx || STM32F732xx || STM32F733xx || STM32F730xx */
1375:Drivers/STM32F7xx_HAL_Driver/Src/stm32f7xx_hal_rcc_ex.c **** 
1376:Drivers/STM32F7xx_HAL_Driver/Src/stm32f7xx_hal_rcc_ex.c **** /**
1377:Drivers/STM32F7xx_HAL_Driver/Src/stm32f7xx_hal_rcc_ex.c ****   * @brief  Return the peripheral clock frequency for a given peripheral(SAI..)
1378:Drivers/STM32F7xx_HAL_Driver/Src/stm32f7xx_hal_rcc_ex.c ****   * @note   Return 0 if peripheral clock identifier not managed by this API
1379:Drivers/STM32F7xx_HAL_Driver/Src/stm32f7xx_hal_rcc_ex.c ****   * @param  PeriphClk Peripheral clock identifier
1380:Drivers/STM32F7xx_HAL_Driver/Src/stm32f7xx_hal_rcc_ex.c ****   *         This parameter can be one of the following values:
1381:Drivers/STM32F7xx_HAL_Driver/Src/stm32f7xx_hal_rcc_ex.c ****   *            @arg RCC_PERIPHCLK_SAI1: SAI1 peripheral clock
1382:Drivers/STM32F7xx_HAL_Driver/Src/stm32f7xx_hal_rcc_ex.c ****   *            @arg RCC_PERIPHCLK_SAI2: SAI2 peripheral clock
1383:Drivers/STM32F7xx_HAL_Driver/Src/stm32f7xx_hal_rcc_ex.c ****   * @retval Frequency in KHz
1384:Drivers/STM32F7xx_HAL_Driver/Src/stm32f7xx_hal_rcc_ex.c ****   */
1385:Drivers/STM32F7xx_HAL_Driver/Src/stm32f7xx_hal_rcc_ex.c **** uint32_t HAL_RCCEx_GetPeriphCLKFreq(uint32_t PeriphClk)
1386:Drivers/STM32F7xx_HAL_Driver/Src/stm32f7xx_hal_rcc_ex.c **** {
 1047              		.loc 1 1386 0
 1048              		.cfi_startproc
 1049              		@ args = 0, pretend = 0, frame = 0
 1050              		@ frame_needed = 0, uses_anonymous_args = 0
 1051              		@ link register save eliminated.
 1052              	.LVL80:
 1053 0000 10B4     		push	{r4}
 1054              	.LCFI4:
 1055              		.cfi_def_cfa_offset 4
 1056              		.cfi_offset 4, -4
 1057              	.LVL81:
1387:Drivers/STM32F7xx_HAL_Driver/Src/stm32f7xx_hal_rcc_ex.c ****   uint32_t tmpreg = 0;
1388:Drivers/STM32F7xx_HAL_Driver/Src/stm32f7xx_hal_rcc_ex.c ****   /* This variable is used to store the SAI clock frequency (value in Hz) */
1389:Drivers/STM32F7xx_HAL_Driver/Src/stm32f7xx_hal_rcc_ex.c ****   uint32_t frequency = 0;
1390:Drivers/STM32F7xx_HAL_Driver/Src/stm32f7xx_hal_rcc_ex.c ****   /* This variable is used to store the VCO Input (value in Hz) */
1391:Drivers/STM32F7xx_HAL_Driver/Src/stm32f7xx_hal_rcc_ex.c ****   uint32_t vcoinput = 0;
1392:Drivers/STM32F7xx_HAL_Driver/Src/stm32f7xx_hal_rcc_ex.c ****   /* This variable is used to store the SAI clock source */
1393:Drivers/STM32F7xx_HAL_Driver/Src/stm32f7xx_hal_rcc_ex.c ****   uint32_t saiclocksource = 0;
1394:Drivers/STM32F7xx_HAL_Driver/Src/stm32f7xx_hal_rcc_ex.c **** 
1395:Drivers/STM32F7xx_HAL_Driver/Src/stm32f7xx_hal_rcc_ex.c ****   if (PeriphClk == RCC_PERIPHCLK_SAI1)
 1058              		.loc 1 1395 0
ARM GAS  /tmp/cciW4iGq.s 			page 45


 1059 0002 B0F5002F 		cmp	r0, #524288
 1060 0006 07D0     		beq	.L117
1389:Drivers/STM32F7xx_HAL_Driver/Src/stm32f7xx_hal_rcc_ex.c ****   /* This variable is used to store the VCO Input (value in Hz) */
 1061              		.loc 1 1389 0
 1062 0008 0023     		movs	r3, #0
 1063              	.LVL82:
 1064              	.L97:
1396:Drivers/STM32F7xx_HAL_Driver/Src/stm32f7xx_hal_rcc_ex.c ****   {
1397:Drivers/STM32F7xx_HAL_Driver/Src/stm32f7xx_hal_rcc_ex.c ****     saiclocksource = RCC->DCKCFGR1;
1398:Drivers/STM32F7xx_HAL_Driver/Src/stm32f7xx_hal_rcc_ex.c ****     saiclocksource &= RCC_DCKCFGR1_SAI1SEL;
1399:Drivers/STM32F7xx_HAL_Driver/Src/stm32f7xx_hal_rcc_ex.c ****     switch (saiclocksource)
1400:Drivers/STM32F7xx_HAL_Driver/Src/stm32f7xx_hal_rcc_ex.c ****     {
1401:Drivers/STM32F7xx_HAL_Driver/Src/stm32f7xx_hal_rcc_ex.c ****     case 0: /* PLLSAI is the clock source for SAI1 */
1402:Drivers/STM32F7xx_HAL_Driver/Src/stm32f7xx_hal_rcc_ex.c ****       {
1403:Drivers/STM32F7xx_HAL_Driver/Src/stm32f7xx_hal_rcc_ex.c ****         /* Configure the PLLSAI division factor */
1404:Drivers/STM32F7xx_HAL_Driver/Src/stm32f7xx_hal_rcc_ex.c ****         /* PLLSAI_VCO Input  = PLL_SOURCE/PLLM */
1405:Drivers/STM32F7xx_HAL_Driver/Src/stm32f7xx_hal_rcc_ex.c ****         if((RCC->PLLCFGR & RCC_PLLCFGR_PLLSRC) == RCC_PLLSOURCE_HSI)
1406:Drivers/STM32F7xx_HAL_Driver/Src/stm32f7xx_hal_rcc_ex.c ****         {
1407:Drivers/STM32F7xx_HAL_Driver/Src/stm32f7xx_hal_rcc_ex.c ****           /* In Case the PLL Source is HSI (Internal Clock) */
1408:Drivers/STM32F7xx_HAL_Driver/Src/stm32f7xx_hal_rcc_ex.c ****           vcoinput = (HSI_VALUE / (uint32_t)(RCC->PLLCFGR & RCC_PLLCFGR_PLLM));
1409:Drivers/STM32F7xx_HAL_Driver/Src/stm32f7xx_hal_rcc_ex.c ****         }
1410:Drivers/STM32F7xx_HAL_Driver/Src/stm32f7xx_hal_rcc_ex.c ****         else
1411:Drivers/STM32F7xx_HAL_Driver/Src/stm32f7xx_hal_rcc_ex.c ****         {
1412:Drivers/STM32F7xx_HAL_Driver/Src/stm32f7xx_hal_rcc_ex.c ****           /* In Case the PLL Source is HSE (External Clock) */
1413:Drivers/STM32F7xx_HAL_Driver/Src/stm32f7xx_hal_rcc_ex.c ****           vcoinput = ((HSE_VALUE / (uint32_t)(RCC->PLLCFGR & RCC_PLLCFGR_PLLM)));
1414:Drivers/STM32F7xx_HAL_Driver/Src/stm32f7xx_hal_rcc_ex.c ****         }
1415:Drivers/STM32F7xx_HAL_Driver/Src/stm32f7xx_hal_rcc_ex.c ****         /* PLLSAI_VCO Output = PLLSAI_VCO Input * PLLSAIN */
1416:Drivers/STM32F7xx_HAL_Driver/Src/stm32f7xx_hal_rcc_ex.c ****         /* SAI_CLK(first level) = PLLSAI_VCO Output/PLLSAIQ */
1417:Drivers/STM32F7xx_HAL_Driver/Src/stm32f7xx_hal_rcc_ex.c ****         tmpreg = (RCC->PLLSAICFGR & RCC_PLLSAICFGR_PLLSAIQ) >> 24;
1418:Drivers/STM32F7xx_HAL_Driver/Src/stm32f7xx_hal_rcc_ex.c ****         frequency = (vcoinput * ((RCC->PLLSAICFGR & RCC_PLLSAICFGR_PLLSAIN) >> 6))/(tmpreg);
1419:Drivers/STM32F7xx_HAL_Driver/Src/stm32f7xx_hal_rcc_ex.c **** 
1420:Drivers/STM32F7xx_HAL_Driver/Src/stm32f7xx_hal_rcc_ex.c ****         /* SAI_CLK_x = SAI_CLK(first level)/PLLSAIDIVQ */
1421:Drivers/STM32F7xx_HAL_Driver/Src/stm32f7xx_hal_rcc_ex.c ****         tmpreg = (((RCC->DCKCFGR1 & RCC_DCKCFGR1_PLLSAIDIVQ) >> 8) + 1);
1422:Drivers/STM32F7xx_HAL_Driver/Src/stm32f7xx_hal_rcc_ex.c ****         frequency = frequency/(tmpreg);
1423:Drivers/STM32F7xx_HAL_Driver/Src/stm32f7xx_hal_rcc_ex.c ****         break;
1424:Drivers/STM32F7xx_HAL_Driver/Src/stm32f7xx_hal_rcc_ex.c ****       }
1425:Drivers/STM32F7xx_HAL_Driver/Src/stm32f7xx_hal_rcc_ex.c ****     case RCC_DCKCFGR1_SAI1SEL_0: /* PLLI2S is the clock source for SAI1 */
1426:Drivers/STM32F7xx_HAL_Driver/Src/stm32f7xx_hal_rcc_ex.c ****       {
1427:Drivers/STM32F7xx_HAL_Driver/Src/stm32f7xx_hal_rcc_ex.c ****         /* Configure the PLLI2S division factor */
1428:Drivers/STM32F7xx_HAL_Driver/Src/stm32f7xx_hal_rcc_ex.c ****         /* PLLI2S_VCO Input  = PLL_SOURCE/PLLM */
1429:Drivers/STM32F7xx_HAL_Driver/Src/stm32f7xx_hal_rcc_ex.c ****         if((RCC->PLLCFGR & RCC_PLLCFGR_PLLSRC) == RCC_PLLSOURCE_HSI)
1430:Drivers/STM32F7xx_HAL_Driver/Src/stm32f7xx_hal_rcc_ex.c ****         {
1431:Drivers/STM32F7xx_HAL_Driver/Src/stm32f7xx_hal_rcc_ex.c ****           /* In Case the PLL Source is HSI (Internal Clock) */
1432:Drivers/STM32F7xx_HAL_Driver/Src/stm32f7xx_hal_rcc_ex.c ****           vcoinput = (HSI_VALUE / (uint32_t)(RCC->PLLCFGR & RCC_PLLCFGR_PLLM));
1433:Drivers/STM32F7xx_HAL_Driver/Src/stm32f7xx_hal_rcc_ex.c ****         }
1434:Drivers/STM32F7xx_HAL_Driver/Src/stm32f7xx_hal_rcc_ex.c ****         else
1435:Drivers/STM32F7xx_HAL_Driver/Src/stm32f7xx_hal_rcc_ex.c ****         {
1436:Drivers/STM32F7xx_HAL_Driver/Src/stm32f7xx_hal_rcc_ex.c ****           /* In Case the PLL Source is HSE (External Clock) */
1437:Drivers/STM32F7xx_HAL_Driver/Src/stm32f7xx_hal_rcc_ex.c ****           vcoinput = ((HSE_VALUE / (uint32_t)(RCC->PLLCFGR & RCC_PLLCFGR_PLLM)));
1438:Drivers/STM32F7xx_HAL_Driver/Src/stm32f7xx_hal_rcc_ex.c ****         }
1439:Drivers/STM32F7xx_HAL_Driver/Src/stm32f7xx_hal_rcc_ex.c **** 
1440:Drivers/STM32F7xx_HAL_Driver/Src/stm32f7xx_hal_rcc_ex.c ****         /* PLLI2S_VCO Output = PLLI2S_VCO Input * PLLI2SN */
1441:Drivers/STM32F7xx_HAL_Driver/Src/stm32f7xx_hal_rcc_ex.c ****         /* SAI_CLK(first level) = PLLI2S_VCO Output/PLLI2SQ */
1442:Drivers/STM32F7xx_HAL_Driver/Src/stm32f7xx_hal_rcc_ex.c ****         tmpreg = (RCC->PLLI2SCFGR & RCC_PLLI2SCFGR_PLLI2SQ) >> 24;
1443:Drivers/STM32F7xx_HAL_Driver/Src/stm32f7xx_hal_rcc_ex.c ****         frequency = (vcoinput * ((RCC->PLLI2SCFGR & RCC_PLLI2SCFGR_PLLI2SN) >> 6))/(tmpreg);
1444:Drivers/STM32F7xx_HAL_Driver/Src/stm32f7xx_hal_rcc_ex.c **** 
1445:Drivers/STM32F7xx_HAL_Driver/Src/stm32f7xx_hal_rcc_ex.c ****         /* SAI_CLK_x = SAI_CLK(first level)/PLLI2SDIVQ */
ARM GAS  /tmp/cciW4iGq.s 			page 46


1446:Drivers/STM32F7xx_HAL_Driver/Src/stm32f7xx_hal_rcc_ex.c ****         tmpreg = ((RCC->DCKCFGR1 & RCC_DCKCFGR1_PLLI2SDIVQ) + 1);
1447:Drivers/STM32F7xx_HAL_Driver/Src/stm32f7xx_hal_rcc_ex.c ****         frequency = frequency/(tmpreg);
1448:Drivers/STM32F7xx_HAL_Driver/Src/stm32f7xx_hal_rcc_ex.c ****         break;
1449:Drivers/STM32F7xx_HAL_Driver/Src/stm32f7xx_hal_rcc_ex.c ****       }
1450:Drivers/STM32F7xx_HAL_Driver/Src/stm32f7xx_hal_rcc_ex.c ****     case RCC_DCKCFGR1_SAI1SEL_1: /* External clock is the clock source for SAI1 */
1451:Drivers/STM32F7xx_HAL_Driver/Src/stm32f7xx_hal_rcc_ex.c ****       {
1452:Drivers/STM32F7xx_HAL_Driver/Src/stm32f7xx_hal_rcc_ex.c ****         frequency = EXTERNAL_CLOCK_VALUE;
1453:Drivers/STM32F7xx_HAL_Driver/Src/stm32f7xx_hal_rcc_ex.c ****         break;
1454:Drivers/STM32F7xx_HAL_Driver/Src/stm32f7xx_hal_rcc_ex.c ****       }
1455:Drivers/STM32F7xx_HAL_Driver/Src/stm32f7xx_hal_rcc_ex.c **** #if defined (STM32F765xx) || defined (STM32F767xx) || defined (STM32F769xx) || defined (STM32F777xx
1456:Drivers/STM32F7xx_HAL_Driver/Src/stm32f7xx_hal_rcc_ex.c ****     case RCC_DCKCFGR1_SAI1SEL: /* HSI or HSE is the clock source for SAI*/
1457:Drivers/STM32F7xx_HAL_Driver/Src/stm32f7xx_hal_rcc_ex.c ****       {
1458:Drivers/STM32F7xx_HAL_Driver/Src/stm32f7xx_hal_rcc_ex.c ****         if((RCC->PLLCFGR & RCC_PLLCFGR_PLLSRC) == RCC_PLLSOURCE_HSI)
1459:Drivers/STM32F7xx_HAL_Driver/Src/stm32f7xx_hal_rcc_ex.c ****         {
1460:Drivers/STM32F7xx_HAL_Driver/Src/stm32f7xx_hal_rcc_ex.c ****           /* In Case the main PLL Source is HSI */
1461:Drivers/STM32F7xx_HAL_Driver/Src/stm32f7xx_hal_rcc_ex.c ****           frequency = HSI_VALUE;
1462:Drivers/STM32F7xx_HAL_Driver/Src/stm32f7xx_hal_rcc_ex.c ****         }
1463:Drivers/STM32F7xx_HAL_Driver/Src/stm32f7xx_hal_rcc_ex.c ****         else
1464:Drivers/STM32F7xx_HAL_Driver/Src/stm32f7xx_hal_rcc_ex.c ****         {
1465:Drivers/STM32F7xx_HAL_Driver/Src/stm32f7xx_hal_rcc_ex.c ****           /* In Case the main PLL Source is HSE */
1466:Drivers/STM32F7xx_HAL_Driver/Src/stm32f7xx_hal_rcc_ex.c ****           frequency = HSE_VALUE;
1467:Drivers/STM32F7xx_HAL_Driver/Src/stm32f7xx_hal_rcc_ex.c ****         }
1468:Drivers/STM32F7xx_HAL_Driver/Src/stm32f7xx_hal_rcc_ex.c ****         break;
1469:Drivers/STM32F7xx_HAL_Driver/Src/stm32f7xx_hal_rcc_ex.c ****       }
1470:Drivers/STM32F7xx_HAL_Driver/Src/stm32f7xx_hal_rcc_ex.c **** #endif /* STM32F767xx || STM32F769xx || STM32F777xx || STM32F779xx */
1471:Drivers/STM32F7xx_HAL_Driver/Src/stm32f7xx_hal_rcc_ex.c ****     default :
1472:Drivers/STM32F7xx_HAL_Driver/Src/stm32f7xx_hal_rcc_ex.c ****       {
1473:Drivers/STM32F7xx_HAL_Driver/Src/stm32f7xx_hal_rcc_ex.c ****         break;
1474:Drivers/STM32F7xx_HAL_Driver/Src/stm32f7xx_hal_rcc_ex.c ****       }
1475:Drivers/STM32F7xx_HAL_Driver/Src/stm32f7xx_hal_rcc_ex.c ****     }
1476:Drivers/STM32F7xx_HAL_Driver/Src/stm32f7xx_hal_rcc_ex.c ****   }
1477:Drivers/STM32F7xx_HAL_Driver/Src/stm32f7xx_hal_rcc_ex.c **** 
1478:Drivers/STM32F7xx_HAL_Driver/Src/stm32f7xx_hal_rcc_ex.c ****   if (PeriphClk == RCC_PERIPHCLK_SAI2)
 1065              		.loc 1 1478 0
 1066 000a B0F5801F 		cmp	r0, #1048576
 1067 000e 65D0     		beq	.L118
 1068              	.LVL83:
 1069              	.L96:
1479:Drivers/STM32F7xx_HAL_Driver/Src/stm32f7xx_hal_rcc_ex.c ****   {
1480:Drivers/STM32F7xx_HAL_Driver/Src/stm32f7xx_hal_rcc_ex.c ****     saiclocksource = RCC->DCKCFGR1;
1481:Drivers/STM32F7xx_HAL_Driver/Src/stm32f7xx_hal_rcc_ex.c ****     saiclocksource &= RCC_DCKCFGR1_SAI2SEL;
1482:Drivers/STM32F7xx_HAL_Driver/Src/stm32f7xx_hal_rcc_ex.c ****     switch (saiclocksource)
1483:Drivers/STM32F7xx_HAL_Driver/Src/stm32f7xx_hal_rcc_ex.c ****     {
1484:Drivers/STM32F7xx_HAL_Driver/Src/stm32f7xx_hal_rcc_ex.c ****     case 0: /* PLLSAI is the clock source for SAI*/
1485:Drivers/STM32F7xx_HAL_Driver/Src/stm32f7xx_hal_rcc_ex.c ****       {
1486:Drivers/STM32F7xx_HAL_Driver/Src/stm32f7xx_hal_rcc_ex.c ****         /* Configure the PLLSAI division factor */
1487:Drivers/STM32F7xx_HAL_Driver/Src/stm32f7xx_hal_rcc_ex.c ****         /* PLLSAI_VCO Input  = PLL_SOURCE/PLLM */
1488:Drivers/STM32F7xx_HAL_Driver/Src/stm32f7xx_hal_rcc_ex.c ****         if((RCC->PLLCFGR & RCC_PLLCFGR_PLLSRC) == RCC_PLLSOURCE_HSI)
1489:Drivers/STM32F7xx_HAL_Driver/Src/stm32f7xx_hal_rcc_ex.c ****         {
1490:Drivers/STM32F7xx_HAL_Driver/Src/stm32f7xx_hal_rcc_ex.c ****           /* In Case the PLL Source is HSI (Internal Clock) */
1491:Drivers/STM32F7xx_HAL_Driver/Src/stm32f7xx_hal_rcc_ex.c ****           vcoinput = (HSI_VALUE / (uint32_t)(RCC->PLLCFGR & RCC_PLLCFGR_PLLM));
1492:Drivers/STM32F7xx_HAL_Driver/Src/stm32f7xx_hal_rcc_ex.c ****         }
1493:Drivers/STM32F7xx_HAL_Driver/Src/stm32f7xx_hal_rcc_ex.c ****         else
1494:Drivers/STM32F7xx_HAL_Driver/Src/stm32f7xx_hal_rcc_ex.c ****         {
1495:Drivers/STM32F7xx_HAL_Driver/Src/stm32f7xx_hal_rcc_ex.c ****           /* In Case the PLL Source is HSE (External Clock) */
1496:Drivers/STM32F7xx_HAL_Driver/Src/stm32f7xx_hal_rcc_ex.c ****           vcoinput = ((HSE_VALUE / (uint32_t)(RCC->PLLCFGR & RCC_PLLCFGR_PLLM)));
1497:Drivers/STM32F7xx_HAL_Driver/Src/stm32f7xx_hal_rcc_ex.c ****         }
ARM GAS  /tmp/cciW4iGq.s 			page 47


1498:Drivers/STM32F7xx_HAL_Driver/Src/stm32f7xx_hal_rcc_ex.c ****         /* PLLSAI_VCO Output = PLLSAI_VCO Input * PLLSAIN */
1499:Drivers/STM32F7xx_HAL_Driver/Src/stm32f7xx_hal_rcc_ex.c ****         /* SAI_CLK(first level) = PLLSAI_VCO Output/PLLSAIQ */
1500:Drivers/STM32F7xx_HAL_Driver/Src/stm32f7xx_hal_rcc_ex.c ****         tmpreg = (RCC->PLLSAICFGR & RCC_PLLSAICFGR_PLLSAIQ) >> 24;
1501:Drivers/STM32F7xx_HAL_Driver/Src/stm32f7xx_hal_rcc_ex.c ****         frequency = (vcoinput * ((RCC->PLLSAICFGR & RCC_PLLSAICFGR_PLLSAIN) >> 6))/(tmpreg);
1502:Drivers/STM32F7xx_HAL_Driver/Src/stm32f7xx_hal_rcc_ex.c **** 
1503:Drivers/STM32F7xx_HAL_Driver/Src/stm32f7xx_hal_rcc_ex.c ****         /* SAI_CLK_x = SAI_CLK(first level)/PLLSAIDIVQ */
1504:Drivers/STM32F7xx_HAL_Driver/Src/stm32f7xx_hal_rcc_ex.c ****         tmpreg = (((RCC->DCKCFGR1 & RCC_DCKCFGR1_PLLSAIDIVQ) >> 8) + 1);
1505:Drivers/STM32F7xx_HAL_Driver/Src/stm32f7xx_hal_rcc_ex.c ****         frequency = frequency/(tmpreg);
1506:Drivers/STM32F7xx_HAL_Driver/Src/stm32f7xx_hal_rcc_ex.c ****         break;
1507:Drivers/STM32F7xx_HAL_Driver/Src/stm32f7xx_hal_rcc_ex.c ****       }
1508:Drivers/STM32F7xx_HAL_Driver/Src/stm32f7xx_hal_rcc_ex.c ****     case RCC_DCKCFGR1_SAI2SEL_0: /* PLLI2S is the clock source for SAI2 */
1509:Drivers/STM32F7xx_HAL_Driver/Src/stm32f7xx_hal_rcc_ex.c ****       {
1510:Drivers/STM32F7xx_HAL_Driver/Src/stm32f7xx_hal_rcc_ex.c ****         /* Configure the PLLI2S division factor */
1511:Drivers/STM32F7xx_HAL_Driver/Src/stm32f7xx_hal_rcc_ex.c ****         /* PLLI2S_VCO Input  = PLL_SOURCE/PLLM */
1512:Drivers/STM32F7xx_HAL_Driver/Src/stm32f7xx_hal_rcc_ex.c ****         if((RCC->PLLCFGR & RCC_PLLCFGR_PLLSRC) == RCC_PLLSOURCE_HSI)
1513:Drivers/STM32F7xx_HAL_Driver/Src/stm32f7xx_hal_rcc_ex.c ****         {
1514:Drivers/STM32F7xx_HAL_Driver/Src/stm32f7xx_hal_rcc_ex.c ****           /* In Case the PLL Source is HSI (Internal Clock) */
1515:Drivers/STM32F7xx_HAL_Driver/Src/stm32f7xx_hal_rcc_ex.c ****           vcoinput = (HSI_VALUE / (uint32_t)(RCC->PLLCFGR & RCC_PLLCFGR_PLLM));
1516:Drivers/STM32F7xx_HAL_Driver/Src/stm32f7xx_hal_rcc_ex.c ****         }
1517:Drivers/STM32F7xx_HAL_Driver/Src/stm32f7xx_hal_rcc_ex.c ****         else
1518:Drivers/STM32F7xx_HAL_Driver/Src/stm32f7xx_hal_rcc_ex.c ****         {
1519:Drivers/STM32F7xx_HAL_Driver/Src/stm32f7xx_hal_rcc_ex.c ****           /* In Case the PLL Source is HSE (External Clock) */
1520:Drivers/STM32F7xx_HAL_Driver/Src/stm32f7xx_hal_rcc_ex.c ****           vcoinput = ((HSE_VALUE / (uint32_t)(RCC->PLLCFGR & RCC_PLLCFGR_PLLM)));
1521:Drivers/STM32F7xx_HAL_Driver/Src/stm32f7xx_hal_rcc_ex.c ****         }
1522:Drivers/STM32F7xx_HAL_Driver/Src/stm32f7xx_hal_rcc_ex.c **** 
1523:Drivers/STM32F7xx_HAL_Driver/Src/stm32f7xx_hal_rcc_ex.c ****         /* PLLI2S_VCO Output = PLLI2S_VCO Input * PLLI2SN */
1524:Drivers/STM32F7xx_HAL_Driver/Src/stm32f7xx_hal_rcc_ex.c ****         /* SAI_CLK(first level) = PLLI2S_VCO Output/PLLI2SQ */
1525:Drivers/STM32F7xx_HAL_Driver/Src/stm32f7xx_hal_rcc_ex.c ****         tmpreg = (RCC->PLLI2SCFGR & RCC_PLLI2SCFGR_PLLI2SQ) >> 24;
1526:Drivers/STM32F7xx_HAL_Driver/Src/stm32f7xx_hal_rcc_ex.c ****         frequency = (vcoinput * ((RCC->PLLI2SCFGR & RCC_PLLI2SCFGR_PLLI2SN) >> 6))/(tmpreg);
1527:Drivers/STM32F7xx_HAL_Driver/Src/stm32f7xx_hal_rcc_ex.c **** 
1528:Drivers/STM32F7xx_HAL_Driver/Src/stm32f7xx_hal_rcc_ex.c ****         /* SAI_CLK_x = SAI_CLK(first level)/PLLI2SDIVQ */
1529:Drivers/STM32F7xx_HAL_Driver/Src/stm32f7xx_hal_rcc_ex.c ****         tmpreg = ((RCC->DCKCFGR1 & RCC_DCKCFGR1_PLLI2SDIVQ) + 1);
1530:Drivers/STM32F7xx_HAL_Driver/Src/stm32f7xx_hal_rcc_ex.c ****         frequency = frequency/(tmpreg);
1531:Drivers/STM32F7xx_HAL_Driver/Src/stm32f7xx_hal_rcc_ex.c ****         break;
1532:Drivers/STM32F7xx_HAL_Driver/Src/stm32f7xx_hal_rcc_ex.c ****       }
1533:Drivers/STM32F7xx_HAL_Driver/Src/stm32f7xx_hal_rcc_ex.c ****     case RCC_DCKCFGR1_SAI2SEL_1: /* External clock is the clock source for SAI2 */
1534:Drivers/STM32F7xx_HAL_Driver/Src/stm32f7xx_hal_rcc_ex.c ****       {
1535:Drivers/STM32F7xx_HAL_Driver/Src/stm32f7xx_hal_rcc_ex.c ****         frequency = EXTERNAL_CLOCK_VALUE;
1536:Drivers/STM32F7xx_HAL_Driver/Src/stm32f7xx_hal_rcc_ex.c ****         break;
1537:Drivers/STM32F7xx_HAL_Driver/Src/stm32f7xx_hal_rcc_ex.c ****       }
1538:Drivers/STM32F7xx_HAL_Driver/Src/stm32f7xx_hal_rcc_ex.c **** #if defined (STM32F765xx) || defined (STM32F767xx) || defined (STM32F769xx) || defined (STM32F777xx
1539:Drivers/STM32F7xx_HAL_Driver/Src/stm32f7xx_hal_rcc_ex.c ****     case RCC_DCKCFGR1_SAI2SEL: /* HSI or HSE is the clock source for SAI2 */
1540:Drivers/STM32F7xx_HAL_Driver/Src/stm32f7xx_hal_rcc_ex.c ****       {
1541:Drivers/STM32F7xx_HAL_Driver/Src/stm32f7xx_hal_rcc_ex.c ****         if((RCC->PLLCFGR & RCC_PLLCFGR_PLLSRC) == RCC_PLLSOURCE_HSI)
1542:Drivers/STM32F7xx_HAL_Driver/Src/stm32f7xx_hal_rcc_ex.c ****         {
1543:Drivers/STM32F7xx_HAL_Driver/Src/stm32f7xx_hal_rcc_ex.c ****           /* In Case the main PLL Source is HSI */
1544:Drivers/STM32F7xx_HAL_Driver/Src/stm32f7xx_hal_rcc_ex.c ****           frequency = HSI_VALUE;
1545:Drivers/STM32F7xx_HAL_Driver/Src/stm32f7xx_hal_rcc_ex.c ****         }
1546:Drivers/STM32F7xx_HAL_Driver/Src/stm32f7xx_hal_rcc_ex.c ****         else
1547:Drivers/STM32F7xx_HAL_Driver/Src/stm32f7xx_hal_rcc_ex.c ****         {
1548:Drivers/STM32F7xx_HAL_Driver/Src/stm32f7xx_hal_rcc_ex.c ****           /* In Case the main PLL Source is HSE */
1549:Drivers/STM32F7xx_HAL_Driver/Src/stm32f7xx_hal_rcc_ex.c ****           frequency = HSE_VALUE;
1550:Drivers/STM32F7xx_HAL_Driver/Src/stm32f7xx_hal_rcc_ex.c ****         }
1551:Drivers/STM32F7xx_HAL_Driver/Src/stm32f7xx_hal_rcc_ex.c ****         break;
1552:Drivers/STM32F7xx_HAL_Driver/Src/stm32f7xx_hal_rcc_ex.c ****       }
1553:Drivers/STM32F7xx_HAL_Driver/Src/stm32f7xx_hal_rcc_ex.c **** #endif /* STM32F767xx || STM32F769xx || STM32F777xx || STM32F779xx */
1554:Drivers/STM32F7xx_HAL_Driver/Src/stm32f7xx_hal_rcc_ex.c ****     default :
ARM GAS  /tmp/cciW4iGq.s 			page 48


1555:Drivers/STM32F7xx_HAL_Driver/Src/stm32f7xx_hal_rcc_ex.c ****       {
1556:Drivers/STM32F7xx_HAL_Driver/Src/stm32f7xx_hal_rcc_ex.c ****         break;
1557:Drivers/STM32F7xx_HAL_Driver/Src/stm32f7xx_hal_rcc_ex.c ****       }
1558:Drivers/STM32F7xx_HAL_Driver/Src/stm32f7xx_hal_rcc_ex.c ****     }
1559:Drivers/STM32F7xx_HAL_Driver/Src/stm32f7xx_hal_rcc_ex.c ****   }
1560:Drivers/STM32F7xx_HAL_Driver/Src/stm32f7xx_hal_rcc_ex.c **** 
1561:Drivers/STM32F7xx_HAL_Driver/Src/stm32f7xx_hal_rcc_ex.c ****   return frequency;
1562:Drivers/STM32F7xx_HAL_Driver/Src/stm32f7xx_hal_rcc_ex.c **** }
 1070              		.loc 1 1562 0
 1071 0010 1846     		mov	r0, r3
 1072 0012 5DF8044B 		ldr	r4, [sp], #4
 1073              	.LCFI5:
 1074              		.cfi_remember_state
 1075              		.cfi_restore 4
 1076              		.cfi_def_cfa_offset 0
 1077 0016 7047     		bx	lr
 1078              	.LVL84:
 1079              	.L117:
 1080              	.LCFI6:
 1081              		.cfi_restore_state
1397:Drivers/STM32F7xx_HAL_Driver/Src/stm32f7xx_hal_rcc_ex.c ****     saiclocksource &= RCC_DCKCFGR1_SAI1SEL;
 1082              		.loc 1 1397 0
 1083 0018 614B     		ldr	r3, .L119
 1084 001a D3F88C30 		ldr	r3, [r3, #140]
 1085              	.LVL85:
1398:Drivers/STM32F7xx_HAL_Driver/Src/stm32f7xx_hal_rcc_ex.c ****     switch (saiclocksource)
 1086              		.loc 1 1398 0
 1087 001e 03F44013 		and	r3, r3, #3145728
 1088              	.LVL86:
1399:Drivers/STM32F7xx_HAL_Driver/Src/stm32f7xx_hal_rcc_ex.c ****     {
 1089              		.loc 1 1399 0
 1090 0022 B3F5801F 		cmp	r3, #1048576
 1091 0026 2ED0     		beq	.L99
 1092 0028 B3F5001F 		cmp	r3, #2097152
 1093 002c 54D0     		beq	.L114
 1094 002e 0BB1     		cbz	r3, .L100
1389:Drivers/STM32F7xx_HAL_Driver/Src/stm32f7xx_hal_rcc_ex.c ****   /* This variable is used to store the VCO Input (value in Hz) */
 1095              		.loc 1 1389 0
 1096 0030 0023     		movs	r3, #0
 1097              	.LVL87:
 1098 0032 EAE7     		b	.L97
 1099              	.LVL88:
 1100              	.L100:
1405:Drivers/STM32F7xx_HAL_Driver/Src/stm32f7xx_hal_rcc_ex.c ****         {
 1101              		.loc 1 1405 0
 1102 0034 5A4B     		ldr	r3, .L119
 1103              	.LVL89:
 1104 0036 5B68     		ldr	r3, [r3, #4]
 1105 0038 13F4800F 		tst	r3, #4194304
 1106 003c 1BD1     		bne	.L101
1408:Drivers/STM32F7xx_HAL_Driver/Src/stm32f7xx_hal_rcc_ex.c ****         }
 1107              		.loc 1 1408 0
 1108 003e 584B     		ldr	r3, .L119
 1109 0040 5A68     		ldr	r2, [r3, #4]
 1110 0042 02F03F02 		and	r2, r2, #63
 1111 0046 574B     		ldr	r3, .L119+4
 1112 0048 B3FBF2F3 		udiv	r3, r3, r2
ARM GAS  /tmp/cciW4iGq.s 			page 49


 1113              	.LVL90:
 1114              	.L102:
1417:Drivers/STM32F7xx_HAL_Driver/Src/stm32f7xx_hal_rcc_ex.c ****         frequency = (vcoinput * ((RCC->PLLSAICFGR & RCC_PLLSAICFGR_PLLSAIN) >> 6))/(tmpreg);
 1115              		.loc 1 1417 0
 1116 004c 544A     		ldr	r2, .L119
 1117 004e D2F88810 		ldr	r1, [r2, #136]
 1118 0052 C1F30361 		ubfx	r1, r1, #24, #4
 1119              	.LVL91:
1418:Drivers/STM32F7xx_HAL_Driver/Src/stm32f7xx_hal_rcc_ex.c **** 
 1120              		.loc 1 1418 0
 1121 0056 D2F88840 		ldr	r4, [r2, #136]
 1122 005a C4F38814 		ubfx	r4, r4, #6, #9
 1123 005e 03FB04F3 		mul	r3, r3, r4
 1124              	.LVL92:
 1125 0062 B3FBF1F3 		udiv	r3, r3, r1
 1126              	.LVL93:
1421:Drivers/STM32F7xx_HAL_Driver/Src/stm32f7xx_hal_rcc_ex.c ****         frequency = frequency/(tmpreg);
 1127              		.loc 1 1421 0
 1128 0066 D2F88C20 		ldr	r2, [r2, #140]
 1129 006a C2F30422 		ubfx	r2, r2, #8, #5
 1130 006e 0132     		adds	r2, r2, #1
 1131              	.LVL94:
1422:Drivers/STM32F7xx_HAL_Driver/Src/stm32f7xx_hal_rcc_ex.c ****         break;
 1132              		.loc 1 1422 0
 1133 0070 B3FBF2F3 		udiv	r3, r3, r2
 1134              	.LVL95:
1423:Drivers/STM32F7xx_HAL_Driver/Src/stm32f7xx_hal_rcc_ex.c ****       }
 1135              		.loc 1 1423 0
 1136 0074 C9E7     		b	.L97
 1137              	.LVL96:
 1138              	.L101:
1413:Drivers/STM32F7xx_HAL_Driver/Src/stm32f7xx_hal_rcc_ex.c ****         }
 1139              		.loc 1 1413 0
 1140 0076 4A4B     		ldr	r3, .L119
 1141 0078 5A68     		ldr	r2, [r3, #4]
 1142 007a 02F03F02 		and	r2, r2, #63
 1143 007e 4A4B     		ldr	r3, .L119+8
 1144 0080 B3FBF2F3 		udiv	r3, r3, r2
 1145              	.LVL97:
 1146 0084 E2E7     		b	.L102
 1147              	.LVL98:
 1148              	.L99:
1429:Drivers/STM32F7xx_HAL_Driver/Src/stm32f7xx_hal_rcc_ex.c ****         {
 1149              		.loc 1 1429 0
 1150 0086 464B     		ldr	r3, .L119
 1151              	.LVL99:
 1152 0088 5B68     		ldr	r3, [r3, #4]
 1153 008a 13F4800F 		tst	r3, #4194304
 1154 008e 1BD1     		bne	.L103
1432:Drivers/STM32F7xx_HAL_Driver/Src/stm32f7xx_hal_rcc_ex.c ****         }
 1155              		.loc 1 1432 0
 1156 0090 434B     		ldr	r3, .L119
 1157 0092 5A68     		ldr	r2, [r3, #4]
 1158 0094 02F03F02 		and	r2, r2, #63
 1159 0098 424B     		ldr	r3, .L119+4
 1160 009a B3FBF2F3 		udiv	r3, r3, r2
 1161              	.LVL100:
ARM GAS  /tmp/cciW4iGq.s 			page 50


 1162              	.L104:
1442:Drivers/STM32F7xx_HAL_Driver/Src/stm32f7xx_hal_rcc_ex.c ****         frequency = (vcoinput * ((RCC->PLLI2SCFGR & RCC_PLLI2SCFGR_PLLI2SN) >> 6))/(tmpreg);
 1163              		.loc 1 1442 0
 1164 009e 404A     		ldr	r2, .L119
 1165 00a0 D2F88410 		ldr	r1, [r2, #132]
 1166 00a4 C1F30361 		ubfx	r1, r1, #24, #4
 1167              	.LVL101:
1443:Drivers/STM32F7xx_HAL_Driver/Src/stm32f7xx_hal_rcc_ex.c **** 
 1168              		.loc 1 1443 0
 1169 00a8 D2F88440 		ldr	r4, [r2, #132]
 1170 00ac C4F38814 		ubfx	r4, r4, #6, #9
 1171 00b0 03FB04F3 		mul	r3, r3, r4
 1172              	.LVL102:
 1173 00b4 B3FBF1F3 		udiv	r3, r3, r1
 1174              	.LVL103:
1446:Drivers/STM32F7xx_HAL_Driver/Src/stm32f7xx_hal_rcc_ex.c ****         frequency = frequency/(tmpreg);
 1175              		.loc 1 1446 0
 1176 00b8 D2F88C20 		ldr	r2, [r2, #140]
 1177 00bc 02F01F02 		and	r2, r2, #31
 1178 00c0 0132     		adds	r2, r2, #1
 1179              	.LVL104:
1447:Drivers/STM32F7xx_HAL_Driver/Src/stm32f7xx_hal_rcc_ex.c ****         break;
 1180              		.loc 1 1447 0
 1181 00c2 B3FBF2F3 		udiv	r3, r3, r2
 1182              	.LVL105:
1448:Drivers/STM32F7xx_HAL_Driver/Src/stm32f7xx_hal_rcc_ex.c ****       }
 1183              		.loc 1 1448 0
 1184 00c6 A0E7     		b	.L97
 1185              	.LVL106:
 1186              	.L103:
1437:Drivers/STM32F7xx_HAL_Driver/Src/stm32f7xx_hal_rcc_ex.c ****         }
 1187              		.loc 1 1437 0
 1188 00c8 354B     		ldr	r3, .L119
 1189 00ca 5A68     		ldr	r2, [r3, #4]
 1190 00cc 02F03F02 		and	r2, r2, #63
 1191 00d0 354B     		ldr	r3, .L119+8
 1192 00d2 B3FBF2F3 		udiv	r3, r3, r2
 1193              	.LVL107:
 1194 00d6 E2E7     		b	.L104
 1195              	.LVL108:
 1196              	.L114:
1452:Drivers/STM32F7xx_HAL_Driver/Src/stm32f7xx_hal_rcc_ex.c ****         break;
 1197              		.loc 1 1452 0
 1198 00d8 344B     		ldr	r3, .L119+12
 1199              	.LVL109:
 1200 00da 96E7     		b	.L97
 1201              	.LVL110:
 1202              	.L118:
1480:Drivers/STM32F7xx_HAL_Driver/Src/stm32f7xx_hal_rcc_ex.c ****     saiclocksource &= RCC_DCKCFGR1_SAI2SEL;
 1203              		.loc 1 1480 0
 1204 00dc 304A     		ldr	r2, .L119
 1205 00de D2F88C20 		ldr	r2, [r2, #140]
 1206              	.LVL111:
1481:Drivers/STM32F7xx_HAL_Driver/Src/stm32f7xx_hal_rcc_ex.c ****     switch (saiclocksource)
 1207              		.loc 1 1481 0
 1208 00e2 02F44002 		and	r2, r2, #12582912
 1209              	.LVL112:
ARM GAS  /tmp/cciW4iGq.s 			page 51


1482:Drivers/STM32F7xx_HAL_Driver/Src/stm32f7xx_hal_rcc_ex.c ****     {
 1210              		.loc 1 1482 0
 1211 00e6 B2F5800F 		cmp	r2, #4194304
 1212 00ea 2DD0     		beq	.L107
 1213 00ec B2F5000F 		cmp	r2, #8388608
 1214 00f0 53D0     		beq	.L115
 1215 00f2 002A     		cmp	r2, #0
 1216 00f4 8CD1     		bne	.L96
1488:Drivers/STM32F7xx_HAL_Driver/Src/stm32f7xx_hal_rcc_ex.c ****         {
 1217              		.loc 1 1488 0
 1218 00f6 2A4B     		ldr	r3, .L119
 1219              	.LVL113:
 1220 00f8 5B68     		ldr	r3, [r3, #4]
 1221 00fa 13F4800F 		tst	r3, #4194304
 1222 00fe 1BD1     		bne	.L109
1491:Drivers/STM32F7xx_HAL_Driver/Src/stm32f7xx_hal_rcc_ex.c ****         }
 1223              		.loc 1 1491 0
 1224 0100 274B     		ldr	r3, .L119
 1225 0102 5A68     		ldr	r2, [r3, #4]
 1226              	.LVL114:
 1227 0104 02F03F02 		and	r2, r2, #63
 1228 0108 264B     		ldr	r3, .L119+4
 1229 010a B3FBF2F3 		udiv	r3, r3, r2
 1230              	.LVL115:
 1231              	.L110:
1500:Drivers/STM32F7xx_HAL_Driver/Src/stm32f7xx_hal_rcc_ex.c ****         frequency = (vcoinput * ((RCC->PLLSAICFGR & RCC_PLLSAICFGR_PLLSAIN) >> 6))/(tmpreg);
 1232              		.loc 1 1500 0
 1233 010e 244A     		ldr	r2, .L119
 1234 0110 D2F88800 		ldr	r0, [r2, #136]
 1235              	.LVL116:
 1236 0114 C0F30360 		ubfx	r0, r0, #24, #4
 1237              	.LVL117:
1501:Drivers/STM32F7xx_HAL_Driver/Src/stm32f7xx_hal_rcc_ex.c **** 
 1238              		.loc 1 1501 0
 1239 0118 D2F88810 		ldr	r1, [r2, #136]
 1240 011c C1F38811 		ubfx	r1, r1, #6, #9
 1241 0120 03FB01F3 		mul	r3, r3, r1
 1242              	.LVL118:
 1243 0124 B3FBF0F3 		udiv	r3, r3, r0
 1244              	.LVL119:
1504:Drivers/STM32F7xx_HAL_Driver/Src/stm32f7xx_hal_rcc_ex.c ****         frequency = frequency/(tmpreg);
 1245              		.loc 1 1504 0
 1246 0128 D2F88C00 		ldr	r0, [r2, #140]
 1247              	.LVL120:
 1248 012c C0F30420 		ubfx	r0, r0, #8, #5
 1249 0130 0130     		adds	r0, r0, #1
 1250              	.LVL121:
1505:Drivers/STM32F7xx_HAL_Driver/Src/stm32f7xx_hal_rcc_ex.c ****         break;
 1251              		.loc 1 1505 0
 1252 0132 B3FBF0F3 		udiv	r3, r3, r0
 1253              	.LVL122:
1506:Drivers/STM32F7xx_HAL_Driver/Src/stm32f7xx_hal_rcc_ex.c ****       }
 1254              		.loc 1 1506 0
 1255 0136 6BE7     		b	.L96
 1256              	.LVL123:
 1257              	.L109:
1496:Drivers/STM32F7xx_HAL_Driver/Src/stm32f7xx_hal_rcc_ex.c ****         }
ARM GAS  /tmp/cciW4iGq.s 			page 52


 1258              		.loc 1 1496 0
 1259 0138 194B     		ldr	r3, .L119
 1260 013a 5A68     		ldr	r2, [r3, #4]
 1261              	.LVL124:
 1262 013c 02F03F02 		and	r2, r2, #63
 1263 0140 194B     		ldr	r3, .L119+8
 1264 0142 B3FBF2F3 		udiv	r3, r3, r2
 1265              	.LVL125:
 1266 0146 E2E7     		b	.L110
 1267              	.LVL126:
 1268              	.L107:
1512:Drivers/STM32F7xx_HAL_Driver/Src/stm32f7xx_hal_rcc_ex.c ****         {
 1269              		.loc 1 1512 0
 1270 0148 154B     		ldr	r3, .L119
 1271              	.LVL127:
 1272 014a 5B68     		ldr	r3, [r3, #4]
 1273 014c 13F4800F 		tst	r3, #4194304
 1274 0150 1BD1     		bne	.L111
1515:Drivers/STM32F7xx_HAL_Driver/Src/stm32f7xx_hal_rcc_ex.c ****         }
 1275              		.loc 1 1515 0
 1276 0152 134B     		ldr	r3, .L119
 1277 0154 5A68     		ldr	r2, [r3, #4]
 1278              	.LVL128:
 1279 0156 02F03F02 		and	r2, r2, #63
 1280 015a 124B     		ldr	r3, .L119+4
 1281 015c B3FBF2F3 		udiv	r3, r3, r2
 1282              	.LVL129:
 1283              	.L112:
1525:Drivers/STM32F7xx_HAL_Driver/Src/stm32f7xx_hal_rcc_ex.c ****         frequency = (vcoinput * ((RCC->PLLI2SCFGR & RCC_PLLI2SCFGR_PLLI2SN) >> 6))/(tmpreg);
 1284              		.loc 1 1525 0
 1285 0160 0F4A     		ldr	r2, .L119
 1286 0162 D2F88400 		ldr	r0, [r2, #132]
 1287              	.LVL130:
 1288 0166 C0F30360 		ubfx	r0, r0, #24, #4
 1289              	.LVL131:
1526:Drivers/STM32F7xx_HAL_Driver/Src/stm32f7xx_hal_rcc_ex.c **** 
 1290              		.loc 1 1526 0
 1291 016a D2F88410 		ldr	r1, [r2, #132]
 1292 016e C1F38811 		ubfx	r1, r1, #6, #9
 1293 0172 03FB01F3 		mul	r3, r3, r1
 1294              	.LVL132:
 1295 0176 B3FBF0F3 		udiv	r3, r3, r0
 1296              	.LVL133:
1529:Drivers/STM32F7xx_HAL_Driver/Src/stm32f7xx_hal_rcc_ex.c ****         frequency = frequency/(tmpreg);
 1297              		.loc 1 1529 0
 1298 017a D2F88C00 		ldr	r0, [r2, #140]
 1299              	.LVL134:
 1300 017e 00F01F00 		and	r0, r0, #31
 1301 0182 0130     		adds	r0, r0, #1
 1302              	.LVL135:
1530:Drivers/STM32F7xx_HAL_Driver/Src/stm32f7xx_hal_rcc_ex.c ****         break;
 1303              		.loc 1 1530 0
 1304 0184 B3FBF0F3 		udiv	r3, r3, r0
 1305              	.LVL136:
1531:Drivers/STM32F7xx_HAL_Driver/Src/stm32f7xx_hal_rcc_ex.c ****       }
 1306              		.loc 1 1531 0
 1307 0188 42E7     		b	.L96
ARM GAS  /tmp/cciW4iGq.s 			page 53


 1308              	.LVL137:
 1309              	.L111:
1520:Drivers/STM32F7xx_HAL_Driver/Src/stm32f7xx_hal_rcc_ex.c ****         }
 1310              		.loc 1 1520 0
 1311 018a 054B     		ldr	r3, .L119
 1312 018c 5A68     		ldr	r2, [r3, #4]
 1313              	.LVL138:
 1314 018e 02F03F02 		and	r2, r2, #63
 1315 0192 054B     		ldr	r3, .L119+8
 1316 0194 B3FBF2F3 		udiv	r3, r3, r2
 1317              	.LVL139:
 1318 0198 E2E7     		b	.L112
 1319              	.LVL140:
 1320              	.L115:
1535:Drivers/STM32F7xx_HAL_Driver/Src/stm32f7xx_hal_rcc_ex.c ****         break;
 1321              		.loc 1 1535 0
 1322 019a 044B     		ldr	r3, .L119+12
 1323              	.LVL141:
1561:Drivers/STM32F7xx_HAL_Driver/Src/stm32f7xx_hal_rcc_ex.c **** }
 1324              		.loc 1 1561 0
 1325 019c 38E7     		b	.L96
 1326              	.L120:
 1327 019e 00BF     		.align	2
 1328              	.L119:
 1329 01a0 00380240 		.word	1073887232
 1330 01a4 0024F400 		.word	16000000
 1331 01a8 40787D01 		.word	25000000
 1332 01ac 0080BB00 		.word	12288000
 1333              		.cfi_endproc
 1334              	.LFE143:
 1336              		.section	.text.HAL_RCCEx_EnablePLLI2S,"ax",%progbits
 1337              		.align	1
 1338              		.global	HAL_RCCEx_EnablePLLI2S
 1339              		.syntax unified
 1340              		.thumb
 1341              		.thumb_func
 1342              		.fpu fpv5-sp-d16
 1344              	HAL_RCCEx_EnablePLLI2S:
 1345              	.LFB144:
1563:Drivers/STM32F7xx_HAL_Driver/Src/stm32f7xx_hal_rcc_ex.c **** 
1564:Drivers/STM32F7xx_HAL_Driver/Src/stm32f7xx_hal_rcc_ex.c **** /**
1565:Drivers/STM32F7xx_HAL_Driver/Src/stm32f7xx_hal_rcc_ex.c ****   * @}
1566:Drivers/STM32F7xx_HAL_Driver/Src/stm32f7xx_hal_rcc_ex.c ****   */
1567:Drivers/STM32F7xx_HAL_Driver/Src/stm32f7xx_hal_rcc_ex.c **** 
1568:Drivers/STM32F7xx_HAL_Driver/Src/stm32f7xx_hal_rcc_ex.c **** /** @defgroup RCCEx_Exported_Functions_Group2 Extended Clock management functions
1569:Drivers/STM32F7xx_HAL_Driver/Src/stm32f7xx_hal_rcc_ex.c ****  *  @brief  Extended Clock management functions
1570:Drivers/STM32F7xx_HAL_Driver/Src/stm32f7xx_hal_rcc_ex.c ****  *
1571:Drivers/STM32F7xx_HAL_Driver/Src/stm32f7xx_hal_rcc_ex.c **** @verbatim
1572:Drivers/STM32F7xx_HAL_Driver/Src/stm32f7xx_hal_rcc_ex.c ****  ===============================================================================
1573:Drivers/STM32F7xx_HAL_Driver/Src/stm32f7xx_hal_rcc_ex.c ****                 ##### Extended clock management functions  #####
1574:Drivers/STM32F7xx_HAL_Driver/Src/stm32f7xx_hal_rcc_ex.c ****  ===============================================================================
1575:Drivers/STM32F7xx_HAL_Driver/Src/stm32f7xx_hal_rcc_ex.c ****     [..]
1576:Drivers/STM32F7xx_HAL_Driver/Src/stm32f7xx_hal_rcc_ex.c ****     This subsection provides a set of functions allowing to control the
1577:Drivers/STM32F7xx_HAL_Driver/Src/stm32f7xx_hal_rcc_ex.c ****     activation or deactivation of PLLI2S, PLLSAI.
1578:Drivers/STM32F7xx_HAL_Driver/Src/stm32f7xx_hal_rcc_ex.c **** @endverbatim
1579:Drivers/STM32F7xx_HAL_Driver/Src/stm32f7xx_hal_rcc_ex.c ****   * @{
1580:Drivers/STM32F7xx_HAL_Driver/Src/stm32f7xx_hal_rcc_ex.c ****   */
ARM GAS  /tmp/cciW4iGq.s 			page 54


1581:Drivers/STM32F7xx_HAL_Driver/Src/stm32f7xx_hal_rcc_ex.c **** 
1582:Drivers/STM32F7xx_HAL_Driver/Src/stm32f7xx_hal_rcc_ex.c **** /**
1583:Drivers/STM32F7xx_HAL_Driver/Src/stm32f7xx_hal_rcc_ex.c ****   * @brief  Enable PLLI2S.
1584:Drivers/STM32F7xx_HAL_Driver/Src/stm32f7xx_hal_rcc_ex.c ****   * @param  PLLI2SInit  pointer to an RCC_PLLI2SInitTypeDef structure that
1585:Drivers/STM32F7xx_HAL_Driver/Src/stm32f7xx_hal_rcc_ex.c ****   *         contains the configuration information for the PLLI2S
1586:Drivers/STM32F7xx_HAL_Driver/Src/stm32f7xx_hal_rcc_ex.c ****   * @retval HAL status
1587:Drivers/STM32F7xx_HAL_Driver/Src/stm32f7xx_hal_rcc_ex.c ****   */
1588:Drivers/STM32F7xx_HAL_Driver/Src/stm32f7xx_hal_rcc_ex.c **** HAL_StatusTypeDef HAL_RCCEx_EnablePLLI2S(RCC_PLLI2SInitTypeDef  *PLLI2SInit)
1589:Drivers/STM32F7xx_HAL_Driver/Src/stm32f7xx_hal_rcc_ex.c **** {
 1346              		.loc 1 1589 0
 1347              		.cfi_startproc
 1348              		@ args = 0, pretend = 0, frame = 0
 1349              		@ frame_needed = 0, uses_anonymous_args = 0
 1350              	.LVL142:
 1351 0000 38B5     		push	{r3, r4, r5, lr}
 1352              	.LCFI7:
 1353              		.cfi_def_cfa_offset 16
 1354              		.cfi_offset 3, -16
 1355              		.cfi_offset 4, -12
 1356              		.cfi_offset 5, -8
 1357              		.cfi_offset 14, -4
 1358 0002 0546     		mov	r5, r0
1590:Drivers/STM32F7xx_HAL_Driver/Src/stm32f7xx_hal_rcc_ex.c ****   uint32_t tickstart;
1591:Drivers/STM32F7xx_HAL_Driver/Src/stm32f7xx_hal_rcc_ex.c **** 
1592:Drivers/STM32F7xx_HAL_Driver/Src/stm32f7xx_hal_rcc_ex.c ****   /* Check for parameters */
1593:Drivers/STM32F7xx_HAL_Driver/Src/stm32f7xx_hal_rcc_ex.c ****   assert_param(IS_RCC_PLLI2SN_VALUE(PLLI2SInit->PLLI2SN));
1594:Drivers/STM32F7xx_HAL_Driver/Src/stm32f7xx_hal_rcc_ex.c ****   assert_param(IS_RCC_PLLI2SR_VALUE(PLLI2SInit->PLLI2SR));
1595:Drivers/STM32F7xx_HAL_Driver/Src/stm32f7xx_hal_rcc_ex.c ****   assert_param(IS_RCC_PLLI2SQ_VALUE(PLLI2SInit->PLLI2SQ));
1596:Drivers/STM32F7xx_HAL_Driver/Src/stm32f7xx_hal_rcc_ex.c **** #if defined(RCC_PLLI2SCFGR_PLLI2SP)
1597:Drivers/STM32F7xx_HAL_Driver/Src/stm32f7xx_hal_rcc_ex.c ****   assert_param(IS_RCC_PLLI2SP_VALUE(PLLI2SInit->PLLI2SP));
1598:Drivers/STM32F7xx_HAL_Driver/Src/stm32f7xx_hal_rcc_ex.c **** #endif /* RCC_PLLI2SCFGR_PLLI2SP */
1599:Drivers/STM32F7xx_HAL_Driver/Src/stm32f7xx_hal_rcc_ex.c **** 
1600:Drivers/STM32F7xx_HAL_Driver/Src/stm32f7xx_hal_rcc_ex.c ****   /* Disable the PLLI2S */
1601:Drivers/STM32F7xx_HAL_Driver/Src/stm32f7xx_hal_rcc_ex.c ****   __HAL_RCC_PLLI2S_DISABLE();
 1359              		.loc 1 1601 0
 1360 0004 1B4A     		ldr	r2, .L132
 1361 0006 1368     		ldr	r3, [r2]
 1362 0008 23F08063 		bic	r3, r3, #67108864
 1363 000c 1360     		str	r3, [r2]
1602:Drivers/STM32F7xx_HAL_Driver/Src/stm32f7xx_hal_rcc_ex.c **** 
1603:Drivers/STM32F7xx_HAL_Driver/Src/stm32f7xx_hal_rcc_ex.c ****   /* Wait till PLLI2S is disabled */
1604:Drivers/STM32F7xx_HAL_Driver/Src/stm32f7xx_hal_rcc_ex.c ****   tickstart = HAL_GetTick();
 1364              		.loc 1 1604 0
 1365 000e FFF7FEFF 		bl	HAL_GetTick
 1366              	.LVL143:
 1367 0012 0446     		mov	r4, r0
 1368              	.LVL144:
 1369              	.L122:
1605:Drivers/STM32F7xx_HAL_Driver/Src/stm32f7xx_hal_rcc_ex.c ****   while(__HAL_RCC_GET_FLAG(RCC_FLAG_PLLI2SRDY) != RESET)
 1370              		.loc 1 1605 0
 1371 0014 174B     		ldr	r3, .L132
 1372 0016 1B68     		ldr	r3, [r3]
 1373 0018 13F0006F 		tst	r3, #134217728
 1374 001c 06D0     		beq	.L130
1606:Drivers/STM32F7xx_HAL_Driver/Src/stm32f7xx_hal_rcc_ex.c ****   {
1607:Drivers/STM32F7xx_HAL_Driver/Src/stm32f7xx_hal_rcc_ex.c ****     if((HAL_GetTick() - tickstart ) > PLLI2S_TIMEOUT_VALUE)
 1375              		.loc 1 1607 0
ARM GAS  /tmp/cciW4iGq.s 			page 55


 1376 001e FFF7FEFF 		bl	HAL_GetTick
 1377              	.LVL145:
 1378 0022 001B     		subs	r0, r0, r4
 1379 0024 6428     		cmp	r0, #100
 1380 0026 F5D9     		bls	.L122
1608:Drivers/STM32F7xx_HAL_Driver/Src/stm32f7xx_hal_rcc_ex.c ****     {
1609:Drivers/STM32F7xx_HAL_Driver/Src/stm32f7xx_hal_rcc_ex.c ****       /* return in case of Timeout detected */
1610:Drivers/STM32F7xx_HAL_Driver/Src/stm32f7xx_hal_rcc_ex.c ****       return HAL_TIMEOUT;
 1381              		.loc 1 1610 0
 1382 0028 0320     		movs	r0, #3
 1383              	.L123:
1611:Drivers/STM32F7xx_HAL_Driver/Src/stm32f7xx_hal_rcc_ex.c ****     }
1612:Drivers/STM32F7xx_HAL_Driver/Src/stm32f7xx_hal_rcc_ex.c ****   }
1613:Drivers/STM32F7xx_HAL_Driver/Src/stm32f7xx_hal_rcc_ex.c **** 
1614:Drivers/STM32F7xx_HAL_Driver/Src/stm32f7xx_hal_rcc_ex.c ****   /* Configure the PLLI2S division factors */
1615:Drivers/STM32F7xx_HAL_Driver/Src/stm32f7xx_hal_rcc_ex.c **** #if defined (STM32F722xx) || defined (STM32F723xx) || defined (STM32F732xx) || defined (STM32F733xx
1616:Drivers/STM32F7xx_HAL_Driver/Src/stm32f7xx_hal_rcc_ex.c ****   /* PLLI2S_VCO = f(VCO clock) = f(PLLI2S clock input) * PLLI2SN */
1617:Drivers/STM32F7xx_HAL_Driver/Src/stm32f7xx_hal_rcc_ex.c ****   /* I2SQCLK = PLLI2S_VCO / PLLI2SQ */
1618:Drivers/STM32F7xx_HAL_Driver/Src/stm32f7xx_hal_rcc_ex.c ****   /* I2SRCLK = PLLI2S_VCO / PLLI2SR */
1619:Drivers/STM32F7xx_HAL_Driver/Src/stm32f7xx_hal_rcc_ex.c ****   __HAL_RCC_PLLI2S_CONFIG(PLLI2SInit->PLLI2SN, PLLI2SInit->PLLI2SQ, PLLI2SInit->PLLI2SR);
1620:Drivers/STM32F7xx_HAL_Driver/Src/stm32f7xx_hal_rcc_ex.c **** #else
1621:Drivers/STM32F7xx_HAL_Driver/Src/stm32f7xx_hal_rcc_ex.c ****   /* PLLI2S_VCO = f(VCO clock) = f(PLLI2S clock input) * PLLI2SN */
1622:Drivers/STM32F7xx_HAL_Driver/Src/stm32f7xx_hal_rcc_ex.c ****   /* I2SPCLK = PLLI2S_VCO / PLLI2SP */
1623:Drivers/STM32F7xx_HAL_Driver/Src/stm32f7xx_hal_rcc_ex.c ****   /* I2SQCLK = PLLI2S_VCO / PLLI2SQ */
1624:Drivers/STM32F7xx_HAL_Driver/Src/stm32f7xx_hal_rcc_ex.c ****   /* I2SRCLK = PLLI2S_VCO / PLLI2SR */
1625:Drivers/STM32F7xx_HAL_Driver/Src/stm32f7xx_hal_rcc_ex.c ****   __HAL_RCC_PLLI2S_CONFIG(PLLI2SInit->PLLI2SN, PLLI2SInit->PLLI2SP, PLLI2SInit->PLLI2SQ, PLLI2SInit
1626:Drivers/STM32F7xx_HAL_Driver/Src/stm32f7xx_hal_rcc_ex.c **** #endif /* STM32F722xx || STM32F723xx || STM32F732xx || STM32F733xx || STM32F730xx */
1627:Drivers/STM32F7xx_HAL_Driver/Src/stm32f7xx_hal_rcc_ex.c **** 
1628:Drivers/STM32F7xx_HAL_Driver/Src/stm32f7xx_hal_rcc_ex.c ****   /* Enable the PLLI2S */
1629:Drivers/STM32F7xx_HAL_Driver/Src/stm32f7xx_hal_rcc_ex.c ****   __HAL_RCC_PLLI2S_ENABLE();
1630:Drivers/STM32F7xx_HAL_Driver/Src/stm32f7xx_hal_rcc_ex.c **** 
1631:Drivers/STM32F7xx_HAL_Driver/Src/stm32f7xx_hal_rcc_ex.c ****   /* Wait till PLLI2S is ready */
1632:Drivers/STM32F7xx_HAL_Driver/Src/stm32f7xx_hal_rcc_ex.c ****   tickstart = HAL_GetTick();
1633:Drivers/STM32F7xx_HAL_Driver/Src/stm32f7xx_hal_rcc_ex.c ****   while(__HAL_RCC_GET_FLAG(RCC_FLAG_PLLI2SRDY) == RESET)
1634:Drivers/STM32F7xx_HAL_Driver/Src/stm32f7xx_hal_rcc_ex.c ****   {
1635:Drivers/STM32F7xx_HAL_Driver/Src/stm32f7xx_hal_rcc_ex.c ****     if((HAL_GetTick() - tickstart ) > PLLI2S_TIMEOUT_VALUE)
1636:Drivers/STM32F7xx_HAL_Driver/Src/stm32f7xx_hal_rcc_ex.c ****     {
1637:Drivers/STM32F7xx_HAL_Driver/Src/stm32f7xx_hal_rcc_ex.c ****       /* return in case of Timeout detected */
1638:Drivers/STM32F7xx_HAL_Driver/Src/stm32f7xx_hal_rcc_ex.c ****       return HAL_TIMEOUT;
1639:Drivers/STM32F7xx_HAL_Driver/Src/stm32f7xx_hal_rcc_ex.c ****     }
1640:Drivers/STM32F7xx_HAL_Driver/Src/stm32f7xx_hal_rcc_ex.c ****   }
1641:Drivers/STM32F7xx_HAL_Driver/Src/stm32f7xx_hal_rcc_ex.c **** 
1642:Drivers/STM32F7xx_HAL_Driver/Src/stm32f7xx_hal_rcc_ex.c ****  return HAL_OK;
1643:Drivers/STM32F7xx_HAL_Driver/Src/stm32f7xx_hal_rcc_ex.c **** }
 1384              		.loc 1 1643 0
 1385 002a 38BD     		pop	{r3, r4, r5, pc}
 1386              	.LVL146:
 1387              	.L130:
1625:Drivers/STM32F7xx_HAL_Driver/Src/stm32f7xx_hal_rcc_ex.c **** #endif /* STM32F722xx || STM32F723xx || STM32F732xx || STM32F733xx || STM32F730xx */
 1388              		.loc 1 1625 0
 1389 002c 2A68     		ldr	r2, [r5]
 1390 002e EB68     		ldr	r3, [r5, #12]
 1391 0030 1B04     		lsls	r3, r3, #16
 1392 0032 43EA8213 		orr	r3, r3, r2, lsl #6
 1393 0036 AA68     		ldr	r2, [r5, #8]
 1394 0038 43EA0263 		orr	r3, r3, r2, lsl #24
 1395 003c 6A68     		ldr	r2, [r5, #4]
ARM GAS  /tmp/cciW4iGq.s 			page 56


 1396 003e 43EA0273 		orr	r3, r3, r2, lsl #28
 1397 0042 0C4A     		ldr	r2, .L132
 1398 0044 C2F88430 		str	r3, [r2, #132]
1629:Drivers/STM32F7xx_HAL_Driver/Src/stm32f7xx_hal_rcc_ex.c **** 
 1399              		.loc 1 1629 0
 1400 0048 1368     		ldr	r3, [r2]
 1401 004a 43F08063 		orr	r3, r3, #67108864
 1402 004e 1360     		str	r3, [r2]
1632:Drivers/STM32F7xx_HAL_Driver/Src/stm32f7xx_hal_rcc_ex.c ****   while(__HAL_RCC_GET_FLAG(RCC_FLAG_PLLI2SRDY) == RESET)
 1403              		.loc 1 1632 0
 1404 0050 FFF7FEFF 		bl	HAL_GetTick
 1405              	.LVL147:
 1406 0054 0446     		mov	r4, r0
 1407              	.LVL148:
 1408              	.L125:
1633:Drivers/STM32F7xx_HAL_Driver/Src/stm32f7xx_hal_rcc_ex.c ****   {
 1409              		.loc 1 1633 0
 1410 0056 074B     		ldr	r3, .L132
 1411 0058 1B68     		ldr	r3, [r3]
 1412 005a 13F0006F 		tst	r3, #134217728
 1413 005e 06D1     		bne	.L131
1635:Drivers/STM32F7xx_HAL_Driver/Src/stm32f7xx_hal_rcc_ex.c ****     {
 1414              		.loc 1 1635 0
 1415 0060 FFF7FEFF 		bl	HAL_GetTick
 1416              	.LVL149:
 1417 0064 001B     		subs	r0, r0, r4
 1418 0066 6428     		cmp	r0, #100
 1419 0068 F5D9     		bls	.L125
1638:Drivers/STM32F7xx_HAL_Driver/Src/stm32f7xx_hal_rcc_ex.c ****     }
 1420              		.loc 1 1638 0
 1421 006a 0320     		movs	r0, #3
 1422 006c DDE7     		b	.L123
 1423              	.L131:
1642:Drivers/STM32F7xx_HAL_Driver/Src/stm32f7xx_hal_rcc_ex.c **** }
 1424              		.loc 1 1642 0
 1425 006e 0020     		movs	r0, #0
 1426 0070 DBE7     		b	.L123
 1427              	.L133:
 1428 0072 00BF     		.align	2
 1429              	.L132:
 1430 0074 00380240 		.word	1073887232
 1431              		.cfi_endproc
 1432              	.LFE144:
 1434              		.section	.text.HAL_RCCEx_DisablePLLI2S,"ax",%progbits
 1435              		.align	1
 1436              		.global	HAL_RCCEx_DisablePLLI2S
 1437              		.syntax unified
 1438              		.thumb
 1439              		.thumb_func
 1440              		.fpu fpv5-sp-d16
 1442              	HAL_RCCEx_DisablePLLI2S:
 1443              	.LFB145:
1644:Drivers/STM32F7xx_HAL_Driver/Src/stm32f7xx_hal_rcc_ex.c **** 
1645:Drivers/STM32F7xx_HAL_Driver/Src/stm32f7xx_hal_rcc_ex.c **** /**
1646:Drivers/STM32F7xx_HAL_Driver/Src/stm32f7xx_hal_rcc_ex.c ****   * @brief  Disable PLLI2S.
1647:Drivers/STM32F7xx_HAL_Driver/Src/stm32f7xx_hal_rcc_ex.c ****   * @retval HAL status
1648:Drivers/STM32F7xx_HAL_Driver/Src/stm32f7xx_hal_rcc_ex.c ****   */
ARM GAS  /tmp/cciW4iGq.s 			page 57


1649:Drivers/STM32F7xx_HAL_Driver/Src/stm32f7xx_hal_rcc_ex.c **** HAL_StatusTypeDef HAL_RCCEx_DisablePLLI2S(void)
1650:Drivers/STM32F7xx_HAL_Driver/Src/stm32f7xx_hal_rcc_ex.c **** {
 1444              		.loc 1 1650 0
 1445              		.cfi_startproc
 1446              		@ args = 0, pretend = 0, frame = 0
 1447              		@ frame_needed = 0, uses_anonymous_args = 0
 1448 0000 10B5     		push	{r4, lr}
 1449              	.LCFI8:
 1450              		.cfi_def_cfa_offset 8
 1451              		.cfi_offset 4, -8
 1452              		.cfi_offset 14, -4
1651:Drivers/STM32F7xx_HAL_Driver/Src/stm32f7xx_hal_rcc_ex.c ****   uint32_t tickstart;
1652:Drivers/STM32F7xx_HAL_Driver/Src/stm32f7xx_hal_rcc_ex.c **** 
1653:Drivers/STM32F7xx_HAL_Driver/Src/stm32f7xx_hal_rcc_ex.c ****   /* Disable the PLLI2S */
1654:Drivers/STM32F7xx_HAL_Driver/Src/stm32f7xx_hal_rcc_ex.c ****   __HAL_RCC_PLLI2S_DISABLE();
 1453              		.loc 1 1654 0
 1454 0002 0B4A     		ldr	r2, .L141
 1455 0004 1368     		ldr	r3, [r2]
 1456 0006 23F08063 		bic	r3, r3, #67108864
 1457 000a 1360     		str	r3, [r2]
1655:Drivers/STM32F7xx_HAL_Driver/Src/stm32f7xx_hal_rcc_ex.c **** 
1656:Drivers/STM32F7xx_HAL_Driver/Src/stm32f7xx_hal_rcc_ex.c ****   /* Wait till PLLI2S is disabled */
1657:Drivers/STM32F7xx_HAL_Driver/Src/stm32f7xx_hal_rcc_ex.c ****   tickstart = HAL_GetTick();
 1458              		.loc 1 1657 0
 1459 000c FFF7FEFF 		bl	HAL_GetTick
 1460              	.LVL150:
 1461 0010 0446     		mov	r4, r0
 1462              	.LVL151:
 1463              	.L135:
1658:Drivers/STM32F7xx_HAL_Driver/Src/stm32f7xx_hal_rcc_ex.c ****   while(READ_BIT(RCC->CR, RCC_CR_PLLI2SRDY) != RESET)
 1464              		.loc 1 1658 0
 1465 0012 074B     		ldr	r3, .L141
 1466 0014 1B68     		ldr	r3, [r3]
 1467 0016 13F0006F 		tst	r3, #134217728
 1468 001a 06D0     		beq	.L140
1659:Drivers/STM32F7xx_HAL_Driver/Src/stm32f7xx_hal_rcc_ex.c ****   {
1660:Drivers/STM32F7xx_HAL_Driver/Src/stm32f7xx_hal_rcc_ex.c ****     if((HAL_GetTick() - tickstart) > PLLI2S_TIMEOUT_VALUE)
 1469              		.loc 1 1660 0
 1470 001c FFF7FEFF 		bl	HAL_GetTick
 1471              	.LVL152:
 1472 0020 001B     		subs	r0, r0, r4
 1473 0022 6428     		cmp	r0, #100
 1474 0024 F5D9     		bls	.L135
1661:Drivers/STM32F7xx_HAL_Driver/Src/stm32f7xx_hal_rcc_ex.c ****     {
1662:Drivers/STM32F7xx_HAL_Driver/Src/stm32f7xx_hal_rcc_ex.c ****       /* return in case of Timeout detected */
1663:Drivers/STM32F7xx_HAL_Driver/Src/stm32f7xx_hal_rcc_ex.c ****       return HAL_TIMEOUT;
 1475              		.loc 1 1663 0
 1476 0026 0320     		movs	r0, #3
 1477 0028 00E0     		b	.L136
 1478              	.L140:
1664:Drivers/STM32F7xx_HAL_Driver/Src/stm32f7xx_hal_rcc_ex.c ****     }
1665:Drivers/STM32F7xx_HAL_Driver/Src/stm32f7xx_hal_rcc_ex.c ****   }
1666:Drivers/STM32F7xx_HAL_Driver/Src/stm32f7xx_hal_rcc_ex.c **** 
1667:Drivers/STM32F7xx_HAL_Driver/Src/stm32f7xx_hal_rcc_ex.c ****   return HAL_OK;
 1479              		.loc 1 1667 0
 1480 002a 0020     		movs	r0, #0
 1481              	.L136:
ARM GAS  /tmp/cciW4iGq.s 			page 58


1668:Drivers/STM32F7xx_HAL_Driver/Src/stm32f7xx_hal_rcc_ex.c **** }
 1482              		.loc 1 1668 0
 1483 002c 10BD     		pop	{r4, pc}
 1484              	.LVL153:
 1485              	.L142:
 1486 002e 00BF     		.align	2
 1487              	.L141:
 1488 0030 00380240 		.word	1073887232
 1489              		.cfi_endproc
 1490              	.LFE145:
 1492              		.section	.text.HAL_RCCEx_EnablePLLSAI,"ax",%progbits
 1493              		.align	1
 1494              		.global	HAL_RCCEx_EnablePLLSAI
 1495              		.syntax unified
 1496              		.thumb
 1497              		.thumb_func
 1498              		.fpu fpv5-sp-d16
 1500              	HAL_RCCEx_EnablePLLSAI:
 1501              	.LFB146:
1669:Drivers/STM32F7xx_HAL_Driver/Src/stm32f7xx_hal_rcc_ex.c **** 
1670:Drivers/STM32F7xx_HAL_Driver/Src/stm32f7xx_hal_rcc_ex.c **** /**
1671:Drivers/STM32F7xx_HAL_Driver/Src/stm32f7xx_hal_rcc_ex.c ****   * @brief  Enable PLLSAI.
1672:Drivers/STM32F7xx_HAL_Driver/Src/stm32f7xx_hal_rcc_ex.c ****   * @param  PLLSAIInit  pointer to an RCC_PLLSAIInitTypeDef structure that
1673:Drivers/STM32F7xx_HAL_Driver/Src/stm32f7xx_hal_rcc_ex.c ****   *         contains the configuration information for the PLLSAI
1674:Drivers/STM32F7xx_HAL_Driver/Src/stm32f7xx_hal_rcc_ex.c ****   * @retval HAL status
1675:Drivers/STM32F7xx_HAL_Driver/Src/stm32f7xx_hal_rcc_ex.c ****   */
1676:Drivers/STM32F7xx_HAL_Driver/Src/stm32f7xx_hal_rcc_ex.c **** HAL_StatusTypeDef HAL_RCCEx_EnablePLLSAI(RCC_PLLSAIInitTypeDef  *PLLSAIInit)
1677:Drivers/STM32F7xx_HAL_Driver/Src/stm32f7xx_hal_rcc_ex.c **** {
 1502              		.loc 1 1677 0
 1503              		.cfi_startproc
 1504              		@ args = 0, pretend = 0, frame = 0
 1505              		@ frame_needed = 0, uses_anonymous_args = 0
 1506              	.LVL154:
 1507 0000 38B5     		push	{r3, r4, r5, lr}
 1508              	.LCFI9:
 1509              		.cfi_def_cfa_offset 16
 1510              		.cfi_offset 3, -16
 1511              		.cfi_offset 4, -12
 1512              		.cfi_offset 5, -8
 1513              		.cfi_offset 14, -4
 1514 0002 0546     		mov	r5, r0
1678:Drivers/STM32F7xx_HAL_Driver/Src/stm32f7xx_hal_rcc_ex.c ****   uint32_t tickstart;
1679:Drivers/STM32F7xx_HAL_Driver/Src/stm32f7xx_hal_rcc_ex.c **** 
1680:Drivers/STM32F7xx_HAL_Driver/Src/stm32f7xx_hal_rcc_ex.c ****   /* Check for parameters */
1681:Drivers/STM32F7xx_HAL_Driver/Src/stm32f7xx_hal_rcc_ex.c ****   assert_param(IS_RCC_PLLSAIN_VALUE(PLLSAIInit->PLLSAIN));
1682:Drivers/STM32F7xx_HAL_Driver/Src/stm32f7xx_hal_rcc_ex.c ****   assert_param(IS_RCC_PLLSAIQ_VALUE(PLLSAIInit->PLLSAIQ));
1683:Drivers/STM32F7xx_HAL_Driver/Src/stm32f7xx_hal_rcc_ex.c ****   assert_param(IS_RCC_PLLSAIP_VALUE(PLLSAIInit->PLLSAIP));
1684:Drivers/STM32F7xx_HAL_Driver/Src/stm32f7xx_hal_rcc_ex.c **** #if defined(RCC_PLLSAICFGR_PLLSAIR)
1685:Drivers/STM32F7xx_HAL_Driver/Src/stm32f7xx_hal_rcc_ex.c ****   assert_param(IS_RCC_PLLSAIR_VALUE(PLLSAIInit->PLLSAIR));
1686:Drivers/STM32F7xx_HAL_Driver/Src/stm32f7xx_hal_rcc_ex.c **** #endif /* RCC_PLLSAICFGR_PLLSAIR */
1687:Drivers/STM32F7xx_HAL_Driver/Src/stm32f7xx_hal_rcc_ex.c **** 
1688:Drivers/STM32F7xx_HAL_Driver/Src/stm32f7xx_hal_rcc_ex.c ****   /* Disable the PLLSAI */
1689:Drivers/STM32F7xx_HAL_Driver/Src/stm32f7xx_hal_rcc_ex.c ****   __HAL_RCC_PLLSAI_DISABLE();
 1515              		.loc 1 1689 0
 1516 0004 1B4A     		ldr	r2, .L154
 1517 0006 1368     		ldr	r3, [r2]
 1518 0008 23F08053 		bic	r3, r3, #268435456
ARM GAS  /tmp/cciW4iGq.s 			page 59


 1519 000c 1360     		str	r3, [r2]
1690:Drivers/STM32F7xx_HAL_Driver/Src/stm32f7xx_hal_rcc_ex.c **** 
1691:Drivers/STM32F7xx_HAL_Driver/Src/stm32f7xx_hal_rcc_ex.c ****   /* Wait till PLLSAI is disabled */
1692:Drivers/STM32F7xx_HAL_Driver/Src/stm32f7xx_hal_rcc_ex.c ****   tickstart = HAL_GetTick();
 1520              		.loc 1 1692 0
 1521 000e FFF7FEFF 		bl	HAL_GetTick
 1522              	.LVL155:
 1523 0012 0446     		mov	r4, r0
 1524              	.LVL156:
 1525              	.L144:
1693:Drivers/STM32F7xx_HAL_Driver/Src/stm32f7xx_hal_rcc_ex.c ****   while(__HAL_RCC_PLLSAI_GET_FLAG() != RESET)
 1526              		.loc 1 1693 0
 1527 0014 174B     		ldr	r3, .L154
 1528 0016 1B68     		ldr	r3, [r3]
 1529 0018 13F0005F 		tst	r3, #536870912
 1530 001c 06D0     		beq	.L152
1694:Drivers/STM32F7xx_HAL_Driver/Src/stm32f7xx_hal_rcc_ex.c ****   {
1695:Drivers/STM32F7xx_HAL_Driver/Src/stm32f7xx_hal_rcc_ex.c ****     if((HAL_GetTick() - tickstart ) > PLLSAI_TIMEOUT_VALUE)
 1531              		.loc 1 1695 0
 1532 001e FFF7FEFF 		bl	HAL_GetTick
 1533              	.LVL157:
 1534 0022 001B     		subs	r0, r0, r4
 1535 0024 6428     		cmp	r0, #100
 1536 0026 F5D9     		bls	.L144
1696:Drivers/STM32F7xx_HAL_Driver/Src/stm32f7xx_hal_rcc_ex.c ****     {
1697:Drivers/STM32F7xx_HAL_Driver/Src/stm32f7xx_hal_rcc_ex.c ****       /* return in case of Timeout detected */
1698:Drivers/STM32F7xx_HAL_Driver/Src/stm32f7xx_hal_rcc_ex.c ****       return HAL_TIMEOUT;
 1537              		.loc 1 1698 0
 1538 0028 0320     		movs	r0, #3
 1539              	.L145:
1699:Drivers/STM32F7xx_HAL_Driver/Src/stm32f7xx_hal_rcc_ex.c ****     }
1700:Drivers/STM32F7xx_HAL_Driver/Src/stm32f7xx_hal_rcc_ex.c ****   }
1701:Drivers/STM32F7xx_HAL_Driver/Src/stm32f7xx_hal_rcc_ex.c **** 
1702:Drivers/STM32F7xx_HAL_Driver/Src/stm32f7xx_hal_rcc_ex.c ****   /* Configure the PLLSAI division factors */
1703:Drivers/STM32F7xx_HAL_Driver/Src/stm32f7xx_hal_rcc_ex.c **** #if defined (STM32F722xx) || defined (STM32F723xx) || defined (STM32F732xx) || defined (STM32F733xx
1704:Drivers/STM32F7xx_HAL_Driver/Src/stm32f7xx_hal_rcc_ex.c ****   /* PLLSAI_VCO = f(VCO clock) = f(PLLSAI clock input) * PLLSAIN */
1705:Drivers/STM32F7xx_HAL_Driver/Src/stm32f7xx_hal_rcc_ex.c ****   /* SAIPCLK = PLLSAI_VCO / PLLSAIP */
1706:Drivers/STM32F7xx_HAL_Driver/Src/stm32f7xx_hal_rcc_ex.c ****   /* SAIQCLK = PLLSAI_VCO / PLLSAIQ */
1707:Drivers/STM32F7xx_HAL_Driver/Src/stm32f7xx_hal_rcc_ex.c ****   __HAL_RCC_PLLSAI_CONFIG(PLLSAIInit->PLLSAIN, PLLSAIInit->PLLSAIP, PLLSAIInit->PLLSAIQ);
1708:Drivers/STM32F7xx_HAL_Driver/Src/stm32f7xx_hal_rcc_ex.c **** #else
1709:Drivers/STM32F7xx_HAL_Driver/Src/stm32f7xx_hal_rcc_ex.c ****   /* PLLSAI_VCO = f(VCO clock) = f(PLLSAI clock input) * PLLSAIN */
1710:Drivers/STM32F7xx_HAL_Driver/Src/stm32f7xx_hal_rcc_ex.c ****   /* SAIPCLK = PLLSAI_VCO / PLLSAIP */
1711:Drivers/STM32F7xx_HAL_Driver/Src/stm32f7xx_hal_rcc_ex.c ****   /* SAIQCLK = PLLSAI_VCO / PLLSAIQ */
1712:Drivers/STM32F7xx_HAL_Driver/Src/stm32f7xx_hal_rcc_ex.c ****   /* SAIRCLK = PLLSAI_VCO / PLLSAIR */
